(dp0
L4227072L
(F37428908.89760349
L4227089L
tp1
sL4284419L
(F1.0
L4284421L
tp2
sL4210692L
(F2.0
L4210707L
tp3
sL4284421L
(F1.0
L4284440L
tp4
sL4268041L
(F28.444444444444443
L4268061L
tp5
sL4251661L
(F4.0
L4251673L
tp6
sL4325391L
(F16.253968253968253
L4325403L
tp7
sL4227089L
(F74857817.79520698
L4227098L
tp8
sL4210707L
(F2.0
L4210728L
tp9
sL4292628L
(F1.0
L4292674L
tp10
sL4266670L
(F16.0
L4266677L
tp11
sL4208368L
(F1.0
L4208389L
tp12
sL4284440L
(F2.0
L4284452L
tp13
sL4251673L
(F1.3333333333333333
L4251678L
tp14
sL4227098L
(F149715635.59041396
L4227113L
tp15
sL4325403L
(F4.571428571428571
L4325418L
tp16
sL4268061L
(F1.020436444603611
L4268076L
tp17
sL4251678L
(F1.0
L4251685L
tp18
sL4218911L
(F2.0
L4218937L
tp19
sL4284452L
(F1.0
L4284455L
tp20
sL4251685L
(F1.0
L4251700L
tp21
sL4284455L
(F1.0
L4284474L
tp22
sL4210728L
(F4.0
L4210748L
tp23
sL4227113L
(F299431271.1808279
L4227120L
tp24
sL4325418L
(F9.142857142857142
L4325429L
tp25
sL4235307L
(F1048576.0
L4235335L
tp26
sL4268076L
(F2.040872889207222
L4268081L
tp27
sL4274866L
(F8192.0
L4274881L
tp28
sL4289885L
(F128.0
L4289943L
tp29
sL4227120L
(F149715635.59041396
L4227176L
tp30
sL4268081L
(F2.040872889207222
L4268083L
tp31
sL4268083L
(F1.0
L4268130L
tp32
sL4251700L
(F2.0
L4251712L
tp33
sL4302174L
(F2.0
L4302191L
tp34
sL4300854L
(F2.0
L4300860L
tp35
sL4218937L
(F1.0
L4218943L
tp36
sL4284474L
(F2.0
L4284481L
tp37
sL4210748L
(F4.0
L4210779L
tp38
sL4210371L
(F1.0
L4210410L
tp39
sL4218943L
(F1.0
L4218958L
tp40
sL4251712L
(F1.0
L4251715L
tp41
sL4277600L
(F1.0
L4277704L
tp42
sL4292674L
(F2.0
L4292699L
tp43
sL4251715L
(F1.0
L4251840L
tp44
sL4235335L
(F2097152.0
L4235348L
tp45
sL4284493L
(F1.0
L4284495L
tp46
sL4218958L
(F2.0
L4218969L
tp47
sL4284495L
(F1.0
L4284573L
tp48
sL4326755L
(F2.2857142857142856
L4326797L
tp49
sL4235348L
(F4194304.0
L4235363L
tp50
sL4276312L
(F1.0
L4276395L
tp51
sL4218969L
(F2.0
L4218973L
tp52
sL4325466L
(F73.14285714285714
L4325481L
tp53
sL4292699L
(F2.0
L4292804L
tp54
sL4218973L
(F1.0
L4218975L
tp55
sL4218975L
(F1.0
L4218990L
tp56
sL4210786L
(F8.0
L4210825L
tp57
sL4235363L
(F8388608.0
L4235492L
tp58
sL4266455L
(F2.0
L4266469L
tp59
sL4300903L
(F2.6666666666666665
L4300928L
tp60
sL4227176L
(F49905211.863471314
L4227185L
tp61
sL4325481L
(F146.28571428571428
L4325496L
tp62
sL4317290L
(F2.0
L4317312L
tp63
sL4218990L
(F2.0
L4219000L
tp64
sL4309103L
(F8.0
L4309110L
tp65
sL4217531L
(F1.1428571428571428
L4217533L
tp66
sL4227185L
(F99810423.72694263
L4227200L
tp67
sL4307646L
(F2.0
L4307672L
tp68
sL4309110L
(F2.6666666666666665
L4309131L
tp69
sL4219000L
(F2.0
L4219005L
tp70
sL4333690L
(F4.0
L4333700L
tp71
sL4219005L
(F1.0
L4219007L
tp72
sL4219007L
(F1.0
L4219022L
tp73
sL4227200L
(F199620847.45388526
L4227207L
tp74
sL4218173L
(F1.0
L4218188L
tp75
sL4318571L
(F170.66666666666666
L4318581L
tp76
sL4333700L
(F4.0
L4333725L
tp77
sL4227207L
(F99810423.72694263
L4227261L
tp78
sL4210825L
(F16.0
L4210868L
tp79
sL4309131L
(F2.0
L4309148L
tp80
sL4295362L
(F2.0
L4295457L
tp81
sL4219022L
(F2.0
L4219050L
tp82
sL4245592L
(F204.8
L4245612L
tp83
sL4325530L
(F292.57142857142856
L4325549L
tp84
sL4243612L
(F114377133393536.4
L4243713L
tp85
sL4284573L
(F2.0
L4284583L
tp86
sL4309150L
(F1.0
L4309199L
tp87
sL4233317L
(F524288.0
L4233410L
tp88
sL4317345L
(F4.0
L4317360L
tp89
sL4241306L
(F8589934592.0
L4241379L
tp90
sL4284583L
(F2.0
L4284754L
tp91
sL4300968L
(F16.0
L4300993L
tp92
sL4226225L
(F3947580.2352941176
L4226232L
tp93
sL4219050L
(F2.0
L4219055L
tp94
sL4268203L
(F1.0
L4268270L
tp95
sL4325549L
(F9.142857142857142
L4325559L
tp96
sL4219055L
(F1.0
L4219057L
tp97
sL4317360L
(F8.0
L4317382L
tp98
sL4219057L
(F1.0
L4219143L
tp99
sL4210868L
(F16.0
L4210890L
tp100
sL4325559L
(F18.285714285714285
L4325574L
tp101
sL4314484L
(F2.0
L4314505L
tp102
sL4239391L
(F1073741824.0
L4239398L
tp103
sL4227261L
(F21053761.25490196
L4227289L
tp104
sL4251840L
(F1.0
L4251896L
tp105
sL4300993L
(F16.0
L4300999L
tp106
sL4209355L
(F1.0
L4209377L
tp107
sL4292804L
(F1.0
L4292847L
tp108
sL4317382L
(F8.0
L4317396L
tp109
sL4300999L
(F32.0
L4301042L
tp110
sL4210890L
(F1.0
L4210905L
tp111
sL4253047L
(F80.0
L4253106L
tp112
sL4319245L
(F16.0
L4319260L
tp113
sL4309199L
(F2.0
L4309260L
tp114
sL4330872L
(F21426.84035759898
L4330923L
tp115
sL4260050L
(F8.0
L4260086L
tp116
sL4317396L
(F16.0
L4317407L
tp117
sL4210905L
(F2.0
L4210910L
tp118
sL4319951L
(F16.0
L4319962L
tp119
sL4210910L
(F2.0
L4210912L
tp120
sL4317407L
(F32.0
L4317418L
tp121
sL4210912L
(F1.0
L4210944L
tp122
sL4242128L
(F61083979320.888885
L4242188L
tp123
sL4235492L
(F16777216.0
L4235566L
tp124
sL4227304L
(F15790320.94117647
L4227351L
tp125
sL4232572L
(F131072.0
L4232583L
tp126
sL4317418L
(F32.0
L4317429L
tp127
sL4268270L
(F1.0
L4268311L
tp128
sL4292847L
(F2.0
L4292872L
tp129
sL4301042L
(F21.333333333333332
L4301067L
tp130
sL4325619L
(F73.14285714285714
L4325634L
tp131
sL4317429L
(F64.0
L4317440L
tp132
sL4260086L
(F16.0
L4260096L
tp133
sL4243497L
(F7148570837096.025
L4243612L
tp134
sL4251896L
(F1.0
L4251916L
tp135
sL4250993L
(F16.0
L4251000L
tp136
sL4210944L
(F2.0
L4210954L
tp137
sL4243713L
(F228754266787072.8
L4243786L
tp138
sL4325634L
(F146.28571428571428
L4325659L
tp139
sL4219143L
(F1.0
L4219209L
tp140
sL4292872L
(F2.0
L4292967L
tp141
sL4210954L
(F2.0
L4210998L
tp142
sL4301067L
(F64.0
L4301150L
tp143
sL4251916L
(F2.0
L4251936L
tp144
sL4278057L
(F0.6666666666666666
L4278100L
tp145
sL4313133L
(F2.6666666666666665
L4313149L
tp146
sL4333840L
(F42.666666666666664
L4333886L
tp147
sL4317462L
(F56.888888888888886
L4317473L
tp148
sL4227351L
(F31580641.88235294
L4227366L
tp149
sL4224388L
(F4096.0
L4224395L
tp150
sL4325659L
(F146.28571428571428
L4325674L
tp151
sL4251936L
(F4.0
L4251956L
tp152
sL4317473L
(F113.77777777777777
L4317484L
tp153
sL4233950L
(F4194304.0
L4234010L
tp154
sL4227366L
(F63161283.76470588
L4227373L
tp155
sL4309287L
(F8.0
L4309297L
tp156
sL4229852L
(F4042322160.9411764
L4229884L
tp157
sL4325674L
(F292.57142857142856
L4325699L
tp158
sL4317484L
(F227.55555555555554
L4317503L
tp159
sL4227373L
(F31580641.88235294
L4227432L
tp160
sL4235566L
(F33554432.0
L4235573L
tp161
sL4309297L
(F2.6666666666666665
L4309311L
tp162
sL4276531L
(F4.0
L4276536L
tp163
sL4251956L
(F2.6666666666666665
L4251963L
tp164
sL4235573L
(F33554432.0
L4235633L
tp165
sL4210998L
(F4.0
L4211038L
tp166
sL4276536L
(F8.0
L4276540L
tp167
sL4276276L
(F2.0
L4276287L
tp168
sL4251963L
(F8.0
L4251967L
tp169
sL4276540L
(F16.0
L4276542L
tp170
sL4276542L
(F8.0
L4276547L
tp171
sL4251967L
(F1.0
L4251975L
tp172
sL4276547L
(F16.0
L4276552L
tp173
sL4251975L
(F2.0
L4251980L
tp174
sL4268360L
(F2.0
L4268372L
tp175
sL4219209L
(F2.0
L4219239L
tp176
sL4243786L
(F457508533574145.6
L4243793L
tp177
sL4317515L
(F8.0
L4317536L
tp178
sL4251980L
(F1.1428571428571428
L4251982L
tp179
sL4251982L
(F1.0
L4252042L
tp180
sL4243793L
(F457508533574145.6
L4243853L
tp181
sL4284754L
(F1.0
L4284756L
tp182
sL4268372L
(F50.0
L4268382L
tp183
sL4310414L
(F2.0
L4310461L
tp184
sL4304262L
(F1.0
L4304413L
tp185
sL4214841L
(F40.0
L4214854L
tp186
sL4276569L
(F4.0
L4276584L
tp187
sL4309341L
(F10.666666666666666
L4309351L
tp188
sL4211038L
(F4.0
L4211082L
tp189
sL4317536L
(F16.0
L4317549L
tp190
sL4214792L
(F40.0
L4214814L
tp191
sL4309351L
(F10.666666666666666
L4309383L
tp192
sL4227432L
(F31580641.88235294
L4227441L
tp193
sL4300860L
(F4.0
L4300903L
tp194
sL4317549L
(F32.0
L4317568L
tp195
sL4227441L
(F63161283.76470588
L4227464L
tp196
sL4276151L
(F1.0
L4276276L
tp197
sL4276599L
(F32.0
L4276613L
tp198
sL4219257L
(F1.0
L4219263L
tp199
sL4278879L
(F2.0
L4278905L
tp200
sL4276287L
(F2.0
L4276312L
tp201
sL4217503L
(F8.0
L4217519L
tp202
sL4219263L
(F1.0
L4219296L
tp203
sL4235648L
(F16777216.0
L4235655L
tp204
sL4325440L
(F36.57142857142857
L4325455L
tp205
sL4246251L
(F8.0
L4246256L
tp206
sL4333956L
(F16.0
L4333966L
tp207
sL4276613L
(F2.0
L4276691L
tp208
sL4317575L
(F1.0
L4317658L
tp209
sL4227464L
(F126322567.52941176
L4227479L
tp210
sL4211082L
(F8.0
L4211088L
tp211
sL4246964L
(F8.0
L4246978L
tp212
sL4243853L
(F228754266787072.8
L4243934L
tp213
sL4333966L
(F10.666666666666666
L4333981L
tp214
sL4211088L
(F5.333333333333333
L4211122L
tp215
sL4284817L
(F4.0
L4284844L
tp216
sL4252051L
(F4.0
L4252058L
tp217
sL4266734L
(F2.0
L4266744L
tp218
sL4309398L
(F2.6666666666666665
L4309412L
tp219
sL4227479L
(F252645135.05882353
L4227486L
tp220
sL4252058L
(F4.0
L4252063L
tp221
sL4333981L
(F21.333333333333332
L4333992L
tp222
sL4227486L
(F126322567.52941176
L4227540L
tp223
sL4252063L
(F2.0
L4252079L
tp224
sL4219296L
(F2.0
L4219326L
tp225
sL4246256L
(F16.0
L4246258L
tp226
sL4268450L
(F100.0
L4268465L
tp227
sL4322715L
(F6.564102564102564
L4322730L
tp228
sL4309412L
(F5.333333333333333
L4309422L
tp229
sL4325799L
(F146.28571428571428
L4325809L
tp230
sL4333992L
(F42.666666666666664
L4334003L
tp231
sL4273564L
(F47662.545454545456
L4273589L
tp232
sL4243312L
(F893571354637.0032
L4243348L
tp233
sL4284844L
(F8.0
L4284854L
tp234
sL4246258L
(F8.0
L4246265L
tp235
sL4309422L
(F10.666666666666666
L4309454L
tp236
sL4252079L
(F4.0
L4252113L
tp237
sL4268465L
(F50.0
L4268475L
tp238
sL4211122L
(F16.0
L4211128L
tp239
sL4334003L
(F85.33333333333333
L4334018L
tp240
sL4246147L
(F4.0
L4246154L
tp241
sL4240798L
(F4294967296.0
L4240871L
tp242
sL4284854L
(F2.0
L4284902L
tp243
sL4211128L
(F32.0
L4211177L
tp244
sL4268475L
(F100.0
L4268543L
tp245
sL4219326L
(F1.0
L4219335L
tp246
sL4334018L
(F85.33333333333333
L4334029L
tp247
sL4328182L
(F341.3333333333333
L4328204L
tp248
sL4219335L
(F2.0
L4219345L
tp249
sL4325834L
(F36.57142857142857
L4325854L
tp250
sL4334029L
(F170.66666666666666
L4334044L
tp251
sL4309454L
(F21.333333333333332
L4309464L
tp252
sL4257332L
(F2.0
L4257339L
tp253
sL4219345L
(F1.0
L4219379L
tp254
sL4276691L
(F4.0
L4276696L
tp255
sL4227540L
(F31580641.88235294
L4227569L
tp256
sL4307797L
(F8.0
L4307824L
tp257
sL4276696L
(F8.0
L4276698L
tp258
sL4298148L
(F4.0
L4298191L
tp259
sL4276698L
(F4.0
L4276713L
tp260
sL4325455L
(F36.57142857142857
L4325466L
tp261
sL4260316L
(F5.333333333333333
L4260356L
tp262
sL4309469L
(F5.333333333333333
L4309481L
tp263
sL4243934L
(F457508533574145.6
L4244008L
tp264
sL4301279L
(F85.33333333333333
L4301337L
tp265
sL4317664L
(F4.0
L4317671L
tp266
sL4332283L
(F1048576.0
L4332298L
tp267
sL4284902L
(F4.0
L4284998L
tp268
sL4317671L
(F4.0
L4317676L
tp269
sL4211177L
(F32.0
L4211216L
tp270
sL4334059L
(F170.66666666666666
L4334074L
tp271
sL4317676L
(F2.0
L4317696L
tp272
sL4325869L
(F73.14285714285714
L4325894L
tp273
sL4279037L
(F64.0
L4279057L
tp274
sL4227569L
(F63161283.76470588
L4227582L
tp275
sL4219379L
(F2.0
L4219404L
tp276
sL4293110L
(F2.0
L4293135L
tp277
sL4276727L
(F2.0
L4276831L
tp278
sL4309497L
(F21.333333333333332
L4309508L
tp279
sL4334074L
(F341.3333333333333
L4334093L
tp280
sL4243435L
(F2042448810598.8645
L4243442L
tp281
sL4289962L
(F128.0
L4289972L
tp282
sL4227582L
(F126322567.52941176
L4227595L
tp283
sL4268543L
(F100.0
L4268558L
tp284
sL4317696L
(F4.0
L4317707L
tp285
sL4217630L
(F8.0
L4217649L
tp286
sL4260356L
(F1.4545454545454546
L4260401L
tp287
sL4325894L
(F146.28571428571428
L4325914L
tp288
sL4235783L
(F8388608.0
L4235790L
tp289
sL4227595L
(F252645135.05882353
L4227604L
tp290
sL4219404L
(F1.0
L4219410L
tp291
sL4334093L
(F682.6666666666666
L4334112L
tp292
sL4235790L
(F8388608.0
L4235845L
tp293
sL4293135L
(F2.0
L4293145L
tp294
sL4211216L
(F64.0
L4211259L
tp295
sL4219410L
(F2.0
L4219458L
tp296
sL4250371L
(F4.0
L4250378L
tp297
sL4227604L
(F505290270.11764705
L4227613L
tp298
sL4317718L
(F8.0
L4317729L
tp299
sL4333657L
(F2.0
L4333690L
tp300
sL4268568L
(F100.0
L4268636L
tp301
sL4293145L
(F4.0
L4293155L
tp302
sL4325914L
(F146.28571428571428
L4325929L
tp303
sL4227613L
(F1010580540.2352941
L4227660L
tp304
sL4252190L
(F40.0
L4252253L
tp305
sL4334112L
(F21.333333333333332
L4334137L
tp306
sL4317729L
(F16.0
L4317740L
tp307
sL4210779L
(F8.0
L4210786L
tp308
sL4301349L
(F64.0
L4301353L
tp309
sL4244008L
(F915017067148291.2
L4244015L
tp310
sL4301353L
(F128.0
L4301360L
tp311
sL4317740L
(F10.666666666666666
L4317751L
tp312
sL4253106L
(F160.0
L4253286L
tp313
sL4244015L
(F915017067148291.2
L4244070L
tp314
sL4301360L
(F128.0
L4301365L
tp315
sL4260401L
(F1.0
L4260416L
tp316
sL4293171L
(F5.333333333333333
L4293196L
tp317
sL4301365L
(F64.0
L4301380L
tp318
sL4317751L
(F21.333333333333332
L4317762L
tp319
sL4334137L
(F42.666666666666664
L4334157L
tp320
sL4211259L
(F64.0
L4211276L
tp321
sL4250378L
(F4.0
L4250383L
tp322
sL4337242L
(F3515.2955611178645
L4337249L
tp323
sL4273589L
(F95325.09090909091
L4273629L
tp324
sL4260416L
(F2.0
L4260421L
tp325
sL4219458L
(F1.0
L4219495L
tp326
sL4301380L
(F128.0
L4301385L
tp327
sL4235845L
(F2097152.0
L4235873L
tp328
sL4284998L
(F1.1428571428571428
L4285000L
tp329
sL4260423L
(F1.0
L4261274L
tp330
sL4285000L
(F1.0
L4285078L
tp331
sL4301385L
(F128.0
L4301387L
tp332
sL4210244L
(F2.0
L4210246L
tp333
sL4301387L
(F1.0
L4301430L
tp334
sL4211276L
(F1.0158730158730158
L4211278L
tp335
sL4268130L
(F1.0
L4268203L
tp336
sL4211278L
(F1.0
L4211325L
tp337
sL4325969L
(F585.1428571428571
L4325994L
tp338
sL4227667L
(F1010580540.2352941
L4227723L
tp339
sL4293206L
(F6.4
L4293231L
tp340
sL4317784L
(F56.888888888888886
L4317790L
tp341
sL4241788L
(F68719476736.0
L4241795L
tp342
sL4268636L
(F100.0
L4268651L
tp343
sL4252253L
(F40.0
L4252268L
tp344
sL4317790L
(F113.77777777777777
L4317797L
tp345
sL4276831L
(F1.0
L4276887L
tp346
sL4309600L
(F56.888888888888886
L4309610L
tp347
sL4235873L
(F4194304.0
L4235886L
tp348
sL4317797L
(F113.77777777777777
L4317802L
tp349
sL4244070L
(F457508533574145.6
L4244083L
tp350
sL4219495L
(F2.0
L4219504L
tp351
sL4309610L
(F56.888888888888886
L4309626L
tp352
sL4268651L
(F50.0
L4268661L
tp353
sL4252268L
(F80.0
L4252275L
tp354
sL4233943L
(F4194304.0
L4233950L
tp355
sL4235886L
(F8388608.0
L4235901L
tp356
sL4293231L
(F12.8
L4293263L
tp357
sL4219504L
(F2.0
L4219512L
tp358
sL4244083L
(F915017067148291.2
L4244105L
tp359
sL4336990L
(F659.1179177095996
L4336997L
tp360
sL4268661L
(F100.0
L4268729L
tp361
sL4301430L
(F2.0
L4301455L
tp362
sL4219512L
(F1.0
L4219514L
tp363
sL4326009L
(F1170.2857142857142
L4326055L
tp364
sL4219514L
(F1.0
L4219564L
tp365
sL4317819L
(F5.885057471264368
L4317831L
tp366
sL4211325L
(F2.0
L4211335L
tp367
sL4324117L
(F4.266666666666667
L4324128L
tp368
sL4289984L
(F64.0
L4289987L
tp369
sL4309636L
(F14.840579710144928
L4309649L
tp370
sL4211335L
(F2.0
L4211363L
tp371
sL4244105L
(F1830034134296582.5
L4244123L
tp372
sL4235914L
(F33554432.0
L4235925L
tp373
sL4227723L
(F31580641.88235294
L4227732L
tp374
sL4293263L
(F4.266666666666667
L4293283L
tp375
sL4309649L
(F29.681159420289855
L4309693L
tp376
sL4284358L
(F2.0
L4284365L
tp377
sL4227732L
(F63161283.76470588
L4227739L
tp378
sL4235925L
(F33554432.0
L4235950L
tp379
sL4285078L
(F2.0
L4285085L
tp380
sL4276887L
(F2.0
L4276939L
tp381
sL4317848L
(F4.0
L4317912L
tp382
sL4314564L
(F1.0
L4314566L
tp383
sL4227739L
(F31580641.88235294
L4227748L
tp384
sL4252317L
(F40.0
L4252341L
tp385
sL4244791L
(F57188566696768.2
L4244805L
tp386
sL4211363L
(F4.0
L4211390L
tp387
sL4227748L
(F63161283.76470588
L4227757L
tp388
sL4326055L
(F146.28571428571428
L4326093L
tp389
sL4209436L
(F1.3333333333333333
L4209438L
tp390
sL4219564L
(F2.0
L4219602L
tp391
sL4227757L
(F126322567.52941176
L4227772L
tp392
sL4235950L
(F33554432.0
L4236039L
tp393
sL4280526L
(F1.0
L4280557L
tp394
sL4334257L
(F341.3333333333333
L4334272L
tp395
sL4321989L
(F8.533333333333333
L4322016L
tp396
sL4216695L
(F1.0
L4216715L
tp397
sL4252341L
(F80.0
L4252431L
tp398
sL4268729L
(F100.0
L4268744L
tp399
sL4293306L
(F17.066666666666666
L4293335L
tp400
sL4227772L
(F252645135.05882353
L4227779L
tp401
sL4261322L
(F4.0
L4261637L
tp402
sL4211390L
(F4.0
L4211434L
tp403
sL4334272L
(F682.6666666666666
L4334297L
tp404
sL4227779L
(F126322567.52941176
L4227833L
tp405
sL4309703L
(F59.36231884057971
L4309740L
tp406
sL4268744L
(F50.0
L4268768L
tp407
sL4276939L
(F1.0
L4276954L
tp408
sL4326093L
(F97.52380952380952
L4326110L
tp409
sL4246924L
(F4.0
L4246929L
tp410
sL4214904L
(F80.0
L4214919L
tp411
sL4219602L
(F4.0
L4219636L
tp412
sL4315939L
(F1.1428571428571428
L4315945L
tp413
sL4293335L
(F17.066666666666666
L4293347L
tp414
sL4317912L
(F1.3027989821882953
L4317914L
tp415
sL4244185L
(F7320136537186330.0
L4244192L
tp416
sL4276954L
(F2.0
L4277006L
tp417
sL4281807L
(F1927.5294117647059
L4281829L
tp418
sL4326110L
(F73.14285714285714
L4326121L
tp419
sL4283173L
(F8.0
L4283197L
tp420
sL4244192L
(F3660068268593165.0
L4244247L
tp421
sL4293347L
(F8.533333333333333
L4293355L
tp422
sL4244945L
(F13963756976.380955
L4244967L
tp423
sL4334312L
(F1365.3333333333333
L4334358L
tp424
sL4326121L
(F146.28571428571428
L4326143L
tp425
sL4211434L
(F8.0
L4211474L
tp426
sL4293355L
(F17.066666666666666
L4293371L
tp427
sL4309740L
(F118.72463768115942
L4309750L
tp428
sL4335058L
(F1.0
L4335160L
tp429
sL4296829L
(F68.26666666666667
L4296844L
tp430
sL4268784L
(F100.0
L4268808L
tp431
sL4238120L
(F134217728.0
L4238135L
tp432
sL4219636L
(F8.0
L4219670L
tp433
sL4309750L
(F118.72463768115942
L4309766L
tp434
sL4227833L
(F31580641.88235294
L4227862L
tp435
sL4293371L
(F34.13333333333333
L4293383L
tp436
sL4326143L
(F292.57142857142856
L4326165L
tp437
sL4285184L
(F1.0
L4285186L
tp438
sL4300928L
(F8.0
L4300968L
tp439
sL4285186L
(F1.0
L4285233L
tp440
sL4234926L
(F33554432.0
L4234944L
tp441
sL4330448L
(F32140.260536398466
L4330464L
tp442
sL4309766L
(F237.44927536231884
L4309776L
tp443
sL4236039L
(F67108864.0
L4236113L
tp444
sL4268808L
(F200.0
L4268824L
tp445
sL4277006L
(F1.0
L4277167L
tp446
sL4252431L
(F160.0
L4252446L
tp447
sL4309776L
(F26.383252818035427
L4309801L
tp448
sL4322776L
(F1.641025641025641
L4322815L
tp449
sL4211474L
(F8.0
L4211529L
tp450
sL4326165L
(F585.1428571428571
L4326187L
tp451
sL4227862L
(F63161283.76470588
L4227875L
tp452
sL4244247L
(F610011378098860.9
L4244273L
tp453
sL4268824L
(F200.0
L4268848L
tp454
sL4301594L
(F16.0
L4301600L
tp455
sL4252446L
(F80.0
L4252511L
tp456
sL4293408L
(F68.26666666666667
L4293421L
tp457
sL4291376L
(F1.0
L4291378L
tp458
sL4227875L
(F126322567.52941176
L4227888L
tp459
sL4231302L
(F128.0
L4231311L
tp460
sL4317990L
(F2.0
L4318012L
tp461
sL4217649L
(F16.0
L4217661L
tp462
sL4309801L
(F52.76650563607085
L4309825L
tp463
sL4325511L
(F146.28571428571428
L4325530L
tp464
sL4293421L
(F136.53333333333333
L4293446L
tp465
sL4227888L
(F252645135.05882353
L4227901L
tp466
sL4244273L
(F457508533574145.6
L4244304L
tp467
sL4326194L
(F1170.2857142857142
L4326201L
tp468
sL4219704L
(F32.0
L4219738L
tp469
sL4326201L
(F585.1428571428571
L4326208L
tp470
sL4318012L
(F2.0
L4318032L
tp471
sL4227901L
(F505290270.11764705
L4227914L
tp472
sL4268864L
(F400.0
L4268888L
tp473
sL4309825L
(F105.5330112721417
L4309862L
tp474
sL4300444L
(F16.0
L4300492L
tp475
sL4317323L
(F4.0
L4317345L
tp476
sL4293446L
(F136.53333333333333
L4293498L
tp477
sL4326215L
(F146.28571428571428
L4326220L
tp478
sL4285256L
(F4.0
L4285314L
tp479
sL4211529L
(F16.0
L4211535L
tp480
sL4227914L
(F1010580540.2352941
L4227923L
tp481
sL4301643L
(F21.333333333333332
L4301668L
tp482
sL4326220L
(F97.52380952380952
L4326262L
tp483
sL4318690L
(F113.77777777777777
L4318716L
tp484
sL4211535L
(F32.0
L4211541L
tp485
sL4318032L
(F4.0
L4318079L
tp486
sL4236113L
(F134217728.0
L4236120L
tp487
sL4227923L
(F2021161080.4705882
L4227932L
tp488
sL4211541L
(F9.142857142857142
L4211575L
tp489
sL4336441L
(F176674.01117846987
L4336456L
tp490
sL4236120L
(F134217728.0
L4236180L
tp491
sL4277732L
(F4.0
L4277787L
tp492
sL4219738L
(F64.0
L4219745L
tp493
sL4241251L
(F34359738368.0
L4241306L
tp494
sL4227932L
(F4042322160.9411764
L4227979L
tp495
sL4314084L
(F4.0
L4314094L
tp496
sL4252511L
(F160.0
L4252526L
tp497
sL4219745L
(F1.0158730158730158
L4219750L
tp498
sL4276713L
(F8.0
L4276727L
tp499
sL4301668L
(F64.0
L4301674L
tp500
sL4307159L
(F4.0
L4307189L
tp501
sL4219750L
(F1.0
L4219752L
tp502
sL4214929L
(F40.0
L4214939L
tp503
sL4219752L
(F1.0
L4219790L
tp504
sL4301674L
(F128.0
L4301717L
tp505
sL4283809L
(F64.0
L4283824L
tp506
sL4252526L
(F80.0
L4252556L
tp507
sL4217661L
(F32.0
L4217693L
tp508
sL4309872L
(F211.0660225442834
L4309916L
tp509
sL4224488L
(F8192.0
L4224543L
tp510
sL4288659L
(F8.0
L4288684L
tp511
sL4326262L
(F195.04761904761904
L4326284L
tp512
sL4211575L
(F64.0
L4211581L
tp513
sL4293498L
(F273.06666666666666
L4293511L
tp514
sL4211581L
(F128.0
L4211630L
tp515
sL4284085L
(F1.0
L4284100L
tp516
sL4318079L
(F8.0
L4318110L
tp517
sL4285314L
(F8.0
L4285324L
tp518
sL4334468L
(F682.6666666666666
L4334490L
tp519
sL4293511L
(F546.1333333333333
L4293524L
tp520
sL4227979L
(F8084644321.882353
L4227986L
tp521
sL4252556L
(F80.0
L4252593L
tp522
sL4325381L
(F36.57142857142857
L4325391L
tp523
sL4219790L
(F2.0
L4219796L
tp524
sL4314605L
(F2.0
L4314659L
tp525
sL4227986L
(F4042322160.9411764
L4228042L
tp526
sL4236180L
(F16777216.0
L4236195L
tp527
sL4301717L
(F85.33333333333333
L4301742L
tp528
sL4225965L
(F8388608.0
L4225987L
tp529
sL4244377L
(F1830034134296582.5
L4244384L
tp530
sL4334490L
(F1365.3333333333333
L4334497L
tp531
sL4309916L
(F422.1320450885668
L4309926L
tp532
sL4318110L
(F16.0
L4318221L
tp533
sL4244384L
(F1830034134296582.5
L4244444L
tp534
sL4334497L
(F1365.3333333333333
L4334504L
tp535
sL4326306L
(F780.1904761904761
L4326328L
tp536
sL4236195L
(F33554432.0
L4236202L
tp537
sL4309926L
(F422.1320450885668
L4309974L
tp538
sL4268968L
(F50.0
L4268984L
tp539
sL4309148L
(F1.0
L4309150L
tp540
sL4236202L
(F33554432.0
L4236257L
tp541
sL4211630L
(F128.0
L4211669L
tp542
sL4333725L
(F8.0
L4333745L
tp543
sL4252593L
(F40.0
L4252616L
tp544
sL4323907L
(F1.0
L4323971L
tp545
sL4219827L
(F4.0
L4219833L
tp546
sL4334518L
(F170.66666666666666
L4334523L
tp547
sL4293559L
(F1092.2666666666667
L4293593L
tp548
sL4268984L
(F50.0
L4269008L
tp549
sL4219833L
(F8.0
L4219839L
tp550
sL4215778L
(F40.0
L4215813L
tp551
sL4334523L
(F113.77777777777777
L4334565L
tp552
sL4274261L
(F92182.5054945055
L4274286L
tp553
sL4326335L
(F1560.3809523809523
L4326342L
tp554
sL4219843L
(F1.0
L4219851L
tp555
sL4326342L
(F780.1904761904761
L4326349L
tp556
sL4332883L
(F21.333333333333332
L4332898L
tp557
sL4252616L
(F80.0
L4252675L
tp558
sL4228042L
(F31580641.88235294
L4228051L
tp559
sL4219851L
(F2.0
L4219854L
tp560
sL4326349L
(F390.0952380952381
L4326356L
tp561
sL4219854L
(F1.0
L4219985L
tp562
sL4269008L
(F100.0
L4269019L
tp563
sL4214147L
(F2.0
L4214166L
tp564
sL4228051L
(F63161283.76470588
L4228066L
tp565
sL4326356L
(F195.04761904761904
L4326361L
tp566
sL4211669L
(F256.0
L4211712L
tp567
sL4309974L
(F844.2640901771337
L4309984L
tp568
sL4326361L
(F97.52380952380952
L4326387L
tp569
sL4269019L
(F50.0
L4269043L
tp570
sL4244444L
(F915017067148291.2
L4244525L
tp571
sL4337829L
(F8.0
L4337882L
tp572
sL4309984L
(F844.2640901771337
L4310000L
tp573
sL4236257L
(F8388608.0
L4236330L
tp574
sL4228066L
(F126322567.52941176
L4228073L
tp575
sL4293605L
(F1092.2666666666667
L4293613L
tp576
sL4218536L
(F2.0
L4218541L
tp577
sL4228073L
(F63161283.76470588
L4228127L
tp578
sL4293613L
(F2184.5333333333333
L4293634L
tp579
sL4273661L
(F254200.24242424243
L4273682L
tp580
sL4310000L
(F1688.5281803542673
L4310010L
tp581
sL4232527L
(F32768.0
L4232540L
tp582
sL4269043L
(F100.0
L4269059L
tp583
sL4277236L
(F2.0
L4277290L
tp584
sL4328276L
(F341.3333333333333
L4328281L
tp585
sL4310010L
(F1688.5281803542673
L4310015L
tp586
sL4334587L
(F455.1111111111111
L4334609L
tp587
sL4223146L
(F64.0
L4223196L
tp588
sL4265659L
(F2.0
L4265671L
tp589
sL4310015L
(F52.76650563607085
L4310033L
tp590
sL4211712L
(F256.0
L4211729L
tp591
sL4208128L
(F1.0
L4208128L
tp592
sL4293634L
(F17.066666666666666
L4293651L
tp593
sL4252675L
(F160.0
L4252855L
tp594
sL4326409L
(F390.0952380952381
L4326431L
tp595
sL4269059L
(F100.0
L4269083L
tp596
sL4318221L
(F8.0
L4318226L
tp597
sL4211729L
(F1.003921568627451
L4211744L
tp598
sL4285458L
(F1.1428571428571428
L4285477L
tp599
sL4293651L
(F6.826666666666667
L4293822L
tp600
sL4262745L
(F2.0
L4262747L
tp601
sL4269083L
(F200.0
L4269099L
tp602
sL4228127L
(F31580641.88235294
L4228155L
tp603
sL4211744L
(F2.007843137254902
L4211749L
tp604
sL4310049L
(F70.35534084809447
L4310056L
tp605
sL4262747L
(F1.0
L4263031L
tp606
sL4211749L
(F2.007843137254902
L4211751L
tp607
sL4322218L
(F16.0
L4322231L
tp608
sL4211751L
(F1.0
L4211798L
tp609
sL4310056L
(F35.177670424047236
L4310062L
tp610
sL4242268L
(F61083979320.888885
L4242323L
tp611
sL4236330L
(F16777216.0
L4236337L
tp612
sL4269099L
(F200.0
L4269123L
tp613
sL4244525L
(F1830034134296582.5
L4244599L
tp614
sL4310062L
(F70.35534084809447
L4310078L
tp615
sL4236337L
(F16777216.0
L4236392L
tp616
sL4311024L
(F3.2
L4311107L
tp617
sL4299091L
(F32.0
L4299092L
tp618
sL4326453L
(F1560.3809523809523
L4326460L
tp619
sL4302345L
(F8.0
L4302367L
tp620
sL4285496L
(F4.571428571428571
L4285547L
tp621
sL4277305L
(F2.0
L4277320L
tp622
sL4228155L
(F15790320.94117647
L4228170L
tp623
sL4326460L
(F1560.3809523809523
L4326467L
tp624
sL4310078L
(F140.71068169618894
L4310088L
tp625
sL4296885L
(F273.06666666666666
L4296910L
tp626
sL4269123L
(F400.0
L4269139L
tp627
sL4213601L
(F1.0
L4213761L
tp628
sL4277320L
(F4.0
L4277422L
tp629
sL4298252L
(F2.0
L4298277L
tp630
sL4228170L
(F31580641.88235294
L4228239L
tp631
sL4267280L
(F170.66666666666666
L4267290L
tp632
sL4283248L
(F8.0
L4283348L
tp633
sL4219985L
(F2.0
L4219991L
tp634
sL4266628L
(F8.0
L4266635L
tp635
sL4269139L
(F400.0
L4269203L
tp636
sL4211798L
(F2.0
L4211808L
tp637
sL4219991L
(F4.0
L4219997L
tp638
sL4318298L
(F1.2307692307692308
L4318300L
tp639
sL4318300L
(F1.0
L4318330L
tp640
sL4219997L
(F8.0
L4220010L
tp641
sL4211808L
(F2.0
L4211836L
tp642
sL4334690L
(F227.55555555555554
L4334712L
tp643
sL4242351L
(F24433591728.355556
L4242364L
tp644
sL4236392L
(F4194304.0
L4236420L
tp645
sL4209890L
(F2.0
L4209929L
tp646
sL4220010L
(F1.0666666666666667
L4220027L
tp647
sL4285547L
(F2.2857142857142856
L4285601L
tp648
sL4310125L
(F281.4213633923779
L4310135L
tp649
sL4244599L
(F3660068268593165.0
L4244606L
tp650
sL4334712L
(F455.1111111111111
L4334734L
tp651
sL4318330L
(F2.0
L4318340L
tp652
sL4220027L
(F2.1333333333333333
L4220044L
tp653
sL4211836L
(F4.0
L4211863L
tp654
sL4234090L
(F1048576.0
L4234145L
tp655
sL4244606L
(F1830034134296582.5
L4244661L
tp656
sL4333760L
(F10.666666666666666
L4333785L
tp657
sL4310146L
(F562.8427267847558
L4310162L
tp658
sL4236420L
(F8388608.0
L4236433L
tp659
sL4269590L
(F50.0
L4269603L
tp660
sL4318346L
(F4.0
L4318356L
tp661
sL4220044L
(F1.0666666666666667
L4220101L
tp662
sL4301966L
(F341.3333333333333
L4302026L
tp663
sL4228239L
(F63161283.76470588
L4228254L
tp664
sL4236433L
(F16777216.0
L4236448L
tp665
sL4310162L
(F1125.6854535695115
L4310172L
tp666
sL4269203L
(F50.0
L4269230L
tp667
sL4318356L
(F4.0
L4318362L
tp668
sL4211863L
(F4.0
L4211921L
tp669
sL4318362L
(F8.0
L4318382L
tp670
sL4275055L
(F1.332858784409034
L4275070L
tp671
sL4310172L
(F59.24660281944798
L4310196L
tp672
sL4228254L
(F126322567.52941176
L4228261L
tp673
sL4236448L
(F33554432.0
L4236577L
tp674
sL4285601L
(F1.1428571428571428
L4285606L
tp675
sL4334756L
(F1820.4444444444443
L4334763L
tp676
sL4228261L
(F63161283.76470588
L4228350L
tp677
sL4285606L
(F1.0
L4285608L
tp678
sL4221809L
(F1.0
L4221811L
tp679
sL4285608L
(F1.0
L4285627L
tp680
sL4265500L
(F2048.0
L4265524L
tp681
sL4334763L
(F1820.4444444444443
L4334770L
tp682
sL4269230L
(F50.0
L4269246L
tp683
sL4324461L
(F9.752382281037596
L4324477L
tp684
sL4334770L
(F910.2222222222222
L4334777L
tp685
sL4310196L
(F2.0
L4310207L
tp686
sL4244661L
(F915017067148291.2
L4244749L
tp687
sL4252855L
(F80.0
L4252869L
tp688
sL4318392L
(F16.0
L4318418L
tp689
sL4242081L
(F61083979320.888885
L4242121L
tp690
sL4285627L
(F2.0
L4285652L
tp691
sL4269246L
(F50.0
L4269273L
tp692
sL4310207L
(F4.0
L4310221L
tp693
sL4334784L
(F227.55555555555554
L4334789L
tp694
sL4293825L
(F17.066666666666666
L4293828L
tp695
sL4293828L
(F2184.5333333333333
L4293829L
tp696
sL4220101L
(F2.1333333333333333
L4220110L
tp697
sL4326600L
(F292.57142857142856
L4326625L
tp698
sL4302026L
(F1024.0
L4302038L
tp699
sL4291447L
(F1.0
L4291478L
tp700
sL4327996L
(F1024.0
L4328003L
tp701
sL4310221L
(F8.0
L4310258L
tp702
sL4220110L
(F4.266666666666667
L4220126L
tp703
sL4211921L
(F8.0
L4211965L
tp704
sL4318418L
(F32.0
L4318428L
tp705
sL4293843L
(F14.018395721925133
L4293898L
tp706
sL4285652L
(F2.0
L4285714L
tp707
sL4305102L
(F10.666666666666666
L4305127L
tp708
sL4302038L
(F256.0
L4302042L
tp709
sL4302367L
(F4.0
L4302382L
tp710
sL4269273L
(F50.0
L4269289L
tp711
sL4302042L
(F512.0
L4302049L
tp712
sL4318428L
(F32.0
L4318438L
tp713
sL4238202L
(F1073741824.0
L4238209L
tp714
sL4220126L
(F8.533333333333333
L4220132L
tp715
sL4298277L
(F2.0
L4298297L
tp716
sL4293911L
(F14.018395721925133
L4293976L
tp717
sL4302049L
(F512.0
L4302054L
tp718
sL4220132L
(F17.066666666666666
L4220139L
tp719
sL4302054L
(F256.0
L4302069L
tp720
sL4269289L
(F50.0
L4269309L
tp721
sL4220139L
(F17.066666666666666
L4220144L
tp722
sL4277484L
(F2.0
L4277499L
tp723
sL4217725L
(F1.28
L4217727L
tp724
sL4318448L
(F16.0
L4318468L
tp725
sL4252913L
(F80.0
L4252950L
tp726
sL4310258L
(F16.0
L4310265L
tp727
sL4334835L
(F85.33333333333333
L4334845L
tp728
sL4302069L
(F512.0
L4302074L
tp729
sL4310265L
(F16.0
L4310281L
tp730
sL4302074L
(F512.0
L4302076L
tp731
sL4277499L
(F4.0
L4277531L
tp732
sL4302076L
(F1.0
L4302149L
tp733
sL4211965L
(F16.0
L4212002L
tp734
sL4228350L
(F63161283.76470588
L4228359L
tp735
sL4209779L
(F4.0
L4209835L
tp736
sL4220162L
(F2.1333333333333333
L4220168L
tp737
sL4318468L
(F32.0
L4318478L
tp738
sL4299142L
(F8.0
L4299147L
tp739
sL4228359L
(F126322567.52941176
L4228374L
tp740
sL4220168L
(F1.3061224489795917
L4220201L
tp741
sL4310281L
(F32.0
L4310288L
tp742
sL4293898L
(F7.0091978609625665
L4293911L
tp743
sL4244749L
(F7148570837096.025
L4244763L
tp744
sL4318478L
(F32.0
L4318484L
tp745
sL4310288L
(F6.4
L4310304L
tp746
sL4285714L
(F4.0
L4285794L
tp747
sL4318484L
(F64.0
L4318499L
tp748
sL4326958L
(F16.0
L4326964L
tp749
sL4228374L
(F252645135.05882353
L4228381L
tp750
sL4334871L
(F341.3333333333333
L4334877L
tp751
sL4311940L
(F7.876923076923077
L4311999L
tp752
sL4244763L
(F14297141674192.05
L4244777L
tp753
sL4228381L
(F126322567.52941176
L4228440L
tp754
sL4324229L
(F273.06666666666666
L4324244L
tp755
sL4310304L
(F12.8
L4310311L
tp756
sL4236577L
(F67108864.0
L4236651L
tp757
sL4212002L
(F16.0
L4212026L
tp758
sL4318499L
(F128.0
L4318509L
tp759
sL4266635L
(F8.0
L4266670L
tp760
sL4238214L
(F1073741824.0
L4238254L
tp761
sL4310311L
(F12.8
L4310332L
tp762
sL4244777L
(F28594283348384.1
L4244791L
tp763
sL4328327L
(F128.0
L4328337L
tp764
sL4269356L
(F100.0
L4269376L
tp765
sL4318509L
(F42.666666666666664
L4318535L
tp766
sL4247773L
(F72.0
L4247793L
tp767
sL4231388L
(F256.0
L4231519L
tp768
sL4220215L
(F2.6122448979591835
L4220221L
tp769
sL4273716L
(F31775.030303030304
L4273741L
tp770
sL4212026L
(F32.0
L4212057L
tp771
sL4252987L
(F40.0
L4253024L
tp772
sL4310332L
(F4.0
L4310349L
tp773
sL4220221L
(F5.224489795918367
L4220286L
tp774
sL4269376L
(F200.0
L4269392L
tp775
sL4316043L
(F3.0476190476190474
L4316057L
tp776
sL4244805L
(F114377133393536.4
L4244810L
tp777
sL4318535L
(F85.33333333333333
L4318545L
tp778
sL4244810L
(F55848209664.8127
L4244883L
tp779
sL4269623L
(F50.0
L4269643L
tp780
sL4310349L
(F1.1041698476598245
L4310364L
tp781
sL4269392L
(F100.0
L4269442L
tp782
sL4318545L
(F85.33333333333333
L4318571L
tp783
sL4326738L
(F1.1428571428571428
L4326755L
tp784
sL4229147L
(F1010580540.2352941
L4229179L
tp785
sL4228440L
(F126322567.52941176
L4228449L
tp786
sL4212057L
(F32.0
L4212062L
tp787
sL4250878L
(F2.0
L4250910L
tp788
sL4310364L
(F2.208339695319649
L4310369L
tp789
sL4212062L
(F4.0
L4212077L
tp790
sL4226695L
(F168430090.03921568
L4226704L
tp791
sL4253024L
(F40.0
L4253047L
tp792
sL4228449L
(F252645135.05882353
L4228464L
tp793
sL4285794L
(F4.0
L4285809L
tp794
sL4310371L
(F1.0
L4310414L
tp795
sL4293991L
(F9.181926444833625
L4293996L
tp796
sL4236651L
(F134217728.0
L4236658L
tp797
sL4293996L
(F9.181926444833625
L4293998L
tp798
sL4212077L
(F8.0
L4212081L
tp799
sL4293998L
(F1.0
L4294044L
tp800
sL4302191L
(F4.0
L4302216L
tp801
sL4228464L
(F505290270.11764705
L4228471L
tp802
sL4212081L
(F1.032258064516129
L4212096L
tp803
sL4236658L
(F134217728.0
L4236718L
tp804
sL4318581L
(F170.66666666666666
L4318591L
tp805
sL4309563L
(F28.444444444444443
L4309600L
tp806
sL4228471L
(F252645135.05882353
L4228530L
tp807
sL4285817L
(F4.0
L4285857L
tp808
sL4220286L
(F10.448979591836734
L4220302L
tp809
sL4318591L
(F16.0
L4318601L
tp810
sL4212096L
(F2.064516129032258
L4212101L
tp811
sL4257344L
(F1.0
L4257543L
tp812
sL4269442L
(F100.0
L4269506L
tp813
sL4212101L
(F2.064516129032258
L4212103L
tp814
sL4212103L
(F1.0
L4212163L
tp815
sL4302216L
(F4.0
L4302338L
tp816
sL4318601L
(F32.0
L4318621L
tp817
sL4326797L
(F4.571428571428571
L4326811L
tp818
sL4220302L
(F5.224489795918367
L4220310L
tp819
sL4223213L
(F42.666666666666664
L4223260L
tp820
sL4244883L
(F111696419329.6254
L4244890L
tp821
sL4220310L
(F1.4927113702623906
L4220396L
tp822
sL4331076L
(F42853.68071519796
L4331127L
tp823
sL4261274L
(F2.0
L4261312L
tp824
sL4326811L
(F2.2857142857142856
L4326816L
tp825
sL4294044L
(F2.0
L4294069L
tp826
sL4318621L
(F64.0
L4318631L
tp827
sL4318789L
(F910.2222222222222
L4318796L
tp828
sL4326816L
(F1.613551309828639
L4326818L
tp829
sL4285857L
(F8.0
L4285937L
tp830
sL4326818L
(F1.0
L4326927L
tp831
sL4246427L
(F1.875
L4246432L
tp832
sL4318631L
(F64.0
L4318637L
tp833
sL4232775L
(F131072.0
L4232782L
tp834
sL4318637L
(F128.0
L4318652L
tp835
sL4236718L
(F33554432.0
L4236733L
tp836
sL4228530L
(F252645135.05882353
L4228539L
tp837
sL4335027L
(F2730.6666666666665
L4335034L
tp838
sL4294069L
(F2.0
L4294174L
tp839
sL4335034L
(F5.333333333333333
L4335051L
tp840
sL4228539L
(F505290270.11764705
L4228554L
tp841
sL4318652L
(F256.0
L4318662L
tp842
sL4236733L
(F67108864.0
L4236740L
tp843
sL4284325L
(F1.0
L4284335L
tp844
sL4261312L
(F4.0
L4261322L
tp845
sL4269506L
(F50.0
L4269522L
tp846
sL4212163L
(F2.0
L4212191L
tp847
sL4236740L
(F67108864.0
L4236795L
tp848
sL4239606L
(F4294967296.0
L4239680L
tp849
sL4318662L
(F85.33333333333333
L4318668L
tp850
sL4277704L
(F2.0
L4277732L
tp851
sL4318796L
(F32.0
L4318801L
tp852
sL4228554L
(F1010580540.2352941
L4228561L
tp853
sL4335051L
(F10.666666666666666
L4335056L
tp854
sL4318668L
(F170.66666666666666
L4318683L
tp855
sL4335056L
(F1.0880595032540843
L4335058L
tp856
sL4228561L
(F505290270.11764705
L4228620L
tp857
sL4269522L
(F50.0
L4269538L
tp858
sL4270187L
(F2.0
L4270198L
tp859
sL4240974L
(F8589934592.0
L4240989L
tp860
sL4318683L
(F341.3333333333333
L4318690L
tp861
sL4212191L
(F4.0
L4212246L
tp862
sL4269538L
(F50.0
L4269551L
tp863
sL4310500L
(F4.0
L4310515L
tp864
sL4244967L
(F512.0
L4244981L
tp865
sL4218455L
(F1.0
L4218474L
tp866
sL4220396L
(F2.9854227405247813
L4220413L
tp867
sL4287646L
(F4.0
L4288060L
tp868
sL4269551L
(F50.0
L4269564L
tp869
sL4285937L
(F8.0
L4285952L
tp870
sL4310515L
(F1.0
L4310519L
tp871
sL4244981L
(F1024.0
L4245011L
tp872
sL4310519L
(F2.0
L4310526L
tp873
sL4236795L
(F16777216.0
L4236868L
tp874
sL4269564L
(F50.0
L4269577L
tp875
sL4220413L
(F1.4927113702623906
L4220471L
tp876
sL4310526L
(F2.0
L4310564L
tp877
sL4310613L
(F4.0
L4310623L
tp878
sL4285952L
(F4.0
L4285960L
tp879
sL4260096L
(F16.0
L4260316L
tp880
sL4302338L
(F8.0
L4302345L
tp881
sL4318723L
(F227.55555555555554
L4318749L
tp882
sL4252280L
(F40.0
L4252317L
tp883
sL4333825L
(F21.333333333333332
L4333840L
tp884
sL4285960L
(F8.0
L4286000L
tp885
sL4269577L
(F50.0
L4269590L
tp886
sL4220201L
(F2.6122448979591835
L4220215L
tp887
sL4228620L
(F505290270.11764705
L4228639L
tp888
sL4305154L
(F1.0
L4305361L
tp889
sL4326927L
(F2.0
L4326937L
tp890
sL4273752L
(F31775.030303030304
L4273817L
tp891
sL4245011L
(F2048.0
L4245020L
tp892
sL4212246L
(F1.3333333333333333
L4212256L
tp893
sL4327001L
(F128.0
L4327018L
tp894
sL4273066L
(F32.0
L4273072L
tp895
sL4326937L
(F4.0
L4326952L
tp896
sL4277787L
(F8.0
L4277836L
tp897
sL4245020L
(F4096.0
L4245035L
tp898
sL4318749L
(F455.1111111111111
L4318756L
tp899
sL4294174L
(F1.0
L4294229L
tp900
sL4228639L
(F1010580540.2352941
L4228697L
tp901
sL4212256L
(F1.0
L4212271L
tp902
sL4269603L
(F50.0
L4269623L
tp903
sL4310564L
(F1.0
L4310566L
tp904
sL4310566L
(F1.0
L4310597L
tp905
sL4221873L
(F4.0
L4221881L
tp906
sL4326952L
(F8.0
L4326958L
tp907
sL6477404L
(F1.0
L6477408L
tp908
sL4245035L
(F8192.0
L4245042L
tp909
sL4302382L
(F8.0
L4302387L
tp910
sL4224605L
(F8192.0
L4224612L
tp911
sL4286000L
(F16.0
L4286080L
tp912
sL4245042L
(F4096.0
L4245092L
tp913
sL4302387L
(F8.0
L4302389L
tp914
sL4212276L
(F2.0
L4212283L
tp915
sL4302389L
(F1.0
L4302462L
tp916
sL4220471L
(F2.9854227405247813
L4220545L
tp917
sL4335160L
(F2.0
L4335170L
tp918
sL4271866L
(F2.0
L4271871L
tp919
sL4212283L
(F1.0
L4212341L
tp920
sL4318782L
(F910.2222222222222
L4318789L
tp921
sL4265568L
(F2048.0
L4265587L
tp922
sL4335170L
(F2.0
L4335203L
tp923
sL4317451L
(F85.33333333333333
L4317462L
tp924
sL4236868L
(F33554432.0
L4236875L
tp925
sL4310597L
(F2.0
L4310613L
tp926
sL4309260L
(F4.0
L4309287L
tp927
sL4236875L
(F33554432.0
L4236930L
tp928
sL4277836L
(F8.0
L4277852L
tp929
sL4318801L
(F1.0
L4318803L
tp930
sL4318803L
(F1.0
L4318988L
tp931
sL4294229L
(F2.0
L4294254L
tp932
sL4273192L
(F2048.0
L4273214L
tp933
sL4228697L
(F2021161080.4705882
L4228704L
tp934
sL4277852L
(F2.0
L4277859L
tp935
sL4216592L
(F2.0
L4216603L
tp936
sL4310623L
(F4.0
L4310634L
tp937
sL4228704L
(F1010580540.2352941
L4228764L
tp938
sL4209634L
(F2.0
L4209679L
tp939
sL4224830L
(F4096.0
L4224876L
tp940
sL4335203L
(F4.0
L4335213L
tp941
sL4245092L
(F2048.0
L4245101L
tp942
sL4269669L
(F50.0
L4269679L
tp943
sL4253286L
(F80.0
L4253300L
tp944
sL4242364L
(F48867183456.71111
L4242396L
tp945
sL4310634L
(F8.0
L4310671L
tp946
sL4245101L
(F4096.0
L4245116L
tp947
sL4294254L
(F2.0
L4294261L
tp948
sL4269679L
(F100.0
L4269689L
tp949
sL4218074L
(F4.0
L4218084L
tp950
sL4253300L
(F160.0
L4253344L
tp951
sL4212341L
(F2.0
L4212356L
tp952
sL4269689L
(F200.0
L4269700L
tp953
sL4245116L
(F8192.0
L4245123L
tp954
sL4327018L
(F256.0
L4327033L
tp955
sL4302462L
(F2.0
L4302487L
tp956
sL4329749L
(F512.0
L4329760L
tp957
sL4286080L
(F16.0
L4286095L
tp958
sL4220545L
(F5.970845481049563
L4220551L
tp959
sL4236930L
(F8388608.0
L4236958L
tp960
sL4245123L
(F4096.0
L4245173L
tp961
sL4212356L
(F2.0
L4212372L
tp962
sL4335238L
(F8.0
L4335258L
tp963
sL4220551L
(F1.4927113702623906
L4220609L
tp964
sL4327049L
(F1024.0
L4327059L
tp965
sL4277899L
(F1.3333333333333333
L4278057L
tp966
sL4294286L
(F4.0
L4294309L
tp967
sL4286095L
(F8.0
L4286103L
tp968
sL4327059L
(F1024.0
L4327073L
tp969
sL4212372L
(F4.0
L4212384L
tp970
sL4286103L
(F16.0
L4286143L
tp971
sL4221892L
(F16.0
L4221897L
tp972
sL4335258L
(F5.333333333333333
L4335273L
tp973
sL4228764L
(F1010580540.2352941
L4228784L
tp974
sL4236958L
(F16777216.0
L4236971L
tp975
sL4230085L
(F5741934.887700534
L4230152L
tp976
sL4253344L
(F80.0
L4253381L
tp977
sL4327073L
(F14.628571428571428
L4327098L
tp978
sL4331570L
(F16070.130268199233
L4331586L
tp979
sL4294309L
(F8.0
L4294316L
tp980
sL4311657L
(F4.0
L4311683L
tp981
sL4302504L
(F4.0
L4302529L
tp982
sL4310697L
(F32.0
L4310707L
tp983
sL4236971L
(F33554432.0
L4236986L
tp984
sL4294316L
(F8.0
L4294421L
tp985
sL4228784L
(F2021161080.4705882
L4228799L
tp986
sL4246472L
(F4.0
L4246477L
tp987
sL4310707L
(F6.4
L4310723L
tp988
sL4245173L
(F204.8
L4245183L
tp989
sL4221897L
(F32.0
L4221902L
tp990
sL4212408L
(F48.0
L4212432L
tp991
sL4327098L
(F29.257142857142856
L4327114L
tp992
sL4215071L
(F1.0
L4215078L
tp993
sL4245183L
(F409.6
L4245193L
tp994
sL4269760L
(F800.0
L4269762L
tp995
sL4220609L
(F2.9854227405247813
L4220624L
tp996
sL4335298L
(F10.666666666666666
L4335313L
tp997
sL4310723L
(F12.8
L4310733L
tp998
sL4253381L
(F40.0
L4253404L
tp999
sL4228806L
(F2021161080.4705882
L4228856L
tp1000
sL4245193L
(F819.2
L4245208L
tp1001
sL4327114L
(F29.257142857142856
L4327176L
tp1002
sL4310733L
(F12.8
L4310749L
tp1003
sL4220624L
(F1.4927113702623906
L4220640L
tp1004
sL4335313L
(F21.333333333333332
L4335338L
tp1005
sL4302546L
(F8.0
L4302556L
tp1006
sL4237013L
(F134217728.0
L4237018L
tp1007
sL4327033L
(F512.0
L4327049L
tp1008
sL4245208L
(F1638.4
L4245215L
tp1009
sL4237018L
(F268435456.0
L4237022L
tp1010
sL4246479L
(F1.0
L4246548L
tp1011
sL4253404L
(F80.0
L4253460L
tp1012
sL4310749L
(F25.6
L4310825L
tp1013
sL4237022L
(F536870912.0
L4237024L
tp1014
sL4245215L
(F819.2
L4245265L
tp1015
sL4237024L
(F268435456.0
L4237029L
tp1016
sL4266960L
(F2.0
L4266970L
tp1017
sL4246385L
(F30.0
L4246392L
tp1018
sL4237029L
(F536870912.0
L4237034L
tp1019
sL4220647L
(F1.0
L4220691L
tp1020
sL4212456L
(F48.0
L4212477L
tp1021
sL4267995L
(F42.666666666666664
L4268021L
tp1022
sL4237034L
(F1073741824.0
L4237036L
tp1023
sL4237036L
(F536870912.0
L4237054L
tp1024
sL4240736L
(F17179869184.0
L4240743L
tp1025
sL4300782L
(F4.0
L4300787L
tp1026
sL4286198L
(F32.0
L4286213L
tp1027
sL4228856L
(F1010580540.2352941
L4228874L
tp1028
sL4335353L
(F42.666666666666664
L4335399L
tp1029
sL4269819L
(F800.0
L4269853L
tp1030
sL4212477L
(F48.0
L4212489L
tp1031
sL4237054L
(F134217728.0
L4237072L
tp1032
sL4274977L
(F2361.6576576576576
L4274981L
tp1033
sL4325429L
(F18.285714285714285
L4325440L
tp1034
sL4261637L
(F1.3333333333333333
L4261673L
tp1035
sL4327176L
(F58.51428571428571
L4327186L
tp1036
sL4212489L
(F48.0
L4212501L
tp1037
sL4228874L
(F2021161080.4705882
L4228932L
tp1038
sL4271063L
(F112.0
L4271087L
tp1039
sL4318988L
(F2.0
L4319068L
tp1040
sL4286221L
(F32.0
L4286261L
tp1041
sL4237072L
(F536870912.0
L4237090L
tp1042
sL4245265L
(F204.8
L4245276L
tp1043
sL4327186L
(F28.444444444444443
L4327198L
tp1044
sL4220691L
(F2.0
L4220701L
tp1045
sL4253460L
(F160.0
L4253527L
tp1046
sL4212501L
(F48.0
L4212522L
tp1047
sL4294423L
(F1.0
L4294510L
tp1048
sL4269700L
(F400.0
L4269760L
tp1049
sL4288815L
(F4.0
L4288840L
tp1050
sL4245276L
(F409.6
L4245368L
tp1051
sL4220701L
(F2.0
L4220730L
tp1052
sL4327198L
(F8.0
L4327213L
tp1053
sL4237090L
(F1073741824.0
L4237107L
tp1054
sL4324315L
(F17476.266666666666
L4324326L
tp1055
sL4335399L
(F5.333333333333333
L4335469L
tp1056
sL4261673L
(F1.0
L4261688L
tp1057
sL4212522L
(F48.0
L4212543L
tp1058
sL4327213L
(F16.0
L4327224L
tp1059
sL4214551L
(F32.0
L4214580L
tp1060
sL4243062L
(F446785677318.5016
L4243117L
tp1061
sL4237107L
(F134217728.0
L4237176L
tp1062
sL4269876L
(F1600.0
L4269888L
tp1063
sL4286261L
(F64.0
L4286319L
tp1064
sL4261688L
(F2.0
L4261693L
tp1065
sL4280628L
(F4.0
L4280778L
tp1066
sL4220730L
(F4.0
L4220740L
tp1067
sL4261693L
(F2.0
L4261695L
tp1068
sL4212543L
(F48.0
L4212564L
tp1069
sL4269888L
(F533.3333333333334
L4269898L
tp1070
sL4327235L
(F64.0
L4327250L
tp1071
sL4310852L
(F25.6
L4310859L
tp1072
sL4293822L
(F12.8
L4293825L
tp1073
sL4269898L
(F1066.6666666666667
L4269911L
tp1074
sL4228939L
(F2021161080.4705882
L4229010L
tp1075
sL4220748L
(F8.0
L4220758L
tp1076
sL4332514L
(F123361.88235294117
L4332524L
tp1077
sL4302671L
(F16.0
L4302678L
tp1078
sL4327250L
(F64.0
L4327261L
tp1079
sL4212564L
(F48.0
L4212576L
tp1080
sL4220758L
(F8.0
L4220788L
tp1081
sL4253527L
(F80.0
L4253537L
tp1082
sL4221924L
(F32.0
L4221934L
tp1083
sL4310671L
(F16.0
L4310681L
tp1084
sL4310876L
(F1.0406504065040652
L4310878L
tp1085
sL4327261L
(F128.0
L4327276L
tp1086
sL4310878L
(F1.0
L4310903L
tp1087
sL4278111L
(F1.3333333333333333
L4278136L
tp1088
sL4212576L
(F48.0
L4212588L
tp1089
sL4253537L
(F160.0
L4253581L
tp1090
sL4234214L
(F4194304.0
L4234225L
tp1091
sL4230078L
(F11483869.775401069
L4230085L
tp1092
sL4319079L
(F4.0
L4319094L
tp1093
sL4242407L
(F195468733826.84445
L4242414L
tp1094
sL4212588L
(F3.6923076923076925
L4212598L
tp1095
sL4335469L
(F16.0
L4335479L
tp1096
sL4269934L
(F800.0
L4269950L
tp1097
sL4286319L
(F64.0
L4286334L
tp1098
sL4271500L
(F16.0
L4271505L
tp1099
sL4220788L
(F16.0
L4220798L
tp1100
sL4333886L
(F5.333333333333333
L4333956L
tp1101
sL4212598L
(F0.9999999999999996
L4212613L
tp1102
sL4310903L
(F2.0
L4310940L
tp1103
sL4237176L
(F268435456.0
L4237250L
tp1104
sL4292163L
(F2.0
L4292169L
tp1105
sL4302715L
(F8.0
L4302720L
tp1106
sL4319823L
(F8190.00048816207
L4319838L
tp1107
sL4220798L
(F16.0
L4220822L
tp1108
sL4302720L
(F8.0
L4302722L
tp1109
sL4302722L
(F1.0
L4302802L
tp1110
sL4269955L
(F1.6032064128256516
L4269970L
tp1111
sL4317120L
(F2.0
L4317128L
tp1112
sL4212613L
(F1.9999999999999991
L4212618L
tp1113
sL4286342L
(F64.0
L4286382L
tp1114
sL4245383L
(F409.6
L4245535L
tp1115
sL4212618L
(F1.9999999999999991
L4212620L
tp1116
sL4302487L
(F2.0
L4302504L
tp1117
sL4212620L
(F1.0
L4212651L
tp1118
sL4253581L
(F80.0
L4253615L
tp1119
sL4294542L
(F4.0
L4294567L
tp1120
sL4319120L
(F4.571428571428571
L4319135L
tp1121
sL4335505L
(F42.666666666666664
L4335516L
tp1122
sL4229010L
(F2021161080.4705882
L4229024L
tp1123
sL4325699L
(F292.57142857142856
L4325714L
tp1124
sL4242414L
(F195468733826.84445
L4242419L
tp1125
sL4220822L
(F32.0
L4220832L
tp1126
sL4269975L
(F3.206412825651303
L4269977L
tp1127
sL4278168L
(F2.6666666666666665
L4278193L
tp1128
sL4269977L
(F1.0
L4270187L
tp1129
sL4271087L
(F112.0
L4271111L
tp1130
sL4310940L
(F4.0
L4310950L
tp1131
sL4327325L
(F512.0
L4327344L
tp1132
sL4264261L
(F64.0
L4264299L
tp1133
sL4229024L
(F4042322160.9411764
L4229074L
tp1134
sL4310950L
(F4.0
L4310976L
tp1135
sL4294567L
(F4.0
L4294574L
tp1136
sL4212651L
(F2.0
L4212675L
tp1137
sL4320122L
(F1024.0
L4320137L
tp1138
sL4220846L
(F64.0
L4220856L
tp1139
sL4253615L
(F40.0
L4253740L
tp1140
sL4327344L
(F16.0
L4327354L
tp1141
sL4276552L
(F32.0
L4276554L
tp1142
sL4242419L
(F97734366913.42223
L4242459L
tp1143
sL4335542L
(F170.66666666666666
L4335557L
tp1144
sL4220856L
(F64.0
L4220886L
tp1145
sL4327354L
(F32.0
L4327369L
tp1146
sL4319164L
(F2.0
L4319176L
tp1147
sL4276554L
(F16.0
L4276569L
tp1148
sL4218349L
(F2.0
L4218354L
tp1149
sL4310976L
(F8.0
L4310986L
tp1150
sL4212384L
(F48.0
L4212408L
tp1151
sL4237250L
(F536870912.0
L4237257L
tp1152
sL4212675L
(F4.0
L4212687L
tp1153
sL4335557L
(F341.3333333333333
L4335572L
tp1154
sL4232865L
(F65536.0
L4232878L
tp1155
sL4319176L
(F4.0
L4319204L
tp1156
sL4237257L
(F536870912.0
L4237317L
tp1157
sL4310986L
(F8.0
L4311009L
tp1158
sL4209511L
(F1.0
L4209537L
tp1159
sL4212687L
(F32.0
L4212697L
tp1160
sL4294608L
(F10.666666666666666
L4294635L
tp1161
sL4221944L
(F21.333333333333332
L4221952L
tp1162
sL4229074L
(F8084644321.882353
L4229081L
tp1163
sL4335572L
(F170.66666666666666
L4335587L
tp1164
sL4225987L
(F8388608.0
L4226007L
tp1165
sL4220886L
(F128.0
L4220896L
tp1166
sL4229081L
(F4042322160.9411764
L4229147L
tp1167
sL4220896L
(F128.0
L4220934L
tp1168
sL4311009L
(F1.6
L4311024L
tp1169
sL4327394L
(F128.0
L4327414L
tp1170
sL4212707L
(F32.0
L4212735L
tp1171
sL4319204L
(F8.0
L4319228L
tp1172
sL4286437L
(F128.0
L4286452L
tp1173
sL4267004L
(F4.0
L4267014L
tp1174
sL4294635L
(F7.111111111111111
L4294641L
tp1175
sL4226378L
(F15790320.94117647
L4226437L
tp1176
sL4325714L
(F585.1428571428571
L4325760L
tp1177
sL4261872L
(F2.0
L4261877L
tp1178
sL4294641L
(F14.222222222222221
L4294656L
tp1179
sL4267068L
(F8.0
L4267085L
tp1180
sL4286452L
(F64.0
L4286460L
tp1181
sL4261877L
(F2.0
L4261879L
tp1182
sL4327414L
(F128.0
L4327429L
tp1183
sL4261879L
(F1.0
L4261984L
tp1184
sL4284756L
(F1.0
L4284807L
tp1185
sL4238017L
(F134217728.0
L4238024L
tp1186
sL4328447L
(F2048.0
L4328495L
tp1187
sL4286460L
(F128.0
L4286500L
tp1188
sL4212735L
(F32.0
L4212753L
tp1189
sL4294656L
(F7.111111111111111
L4294687L
tp1190
sL4221952L
(F4.0
L4221963L
tp1191
sL4256021L
(F144.0
L4256043L
tp1192
sL4327429L
(F256.0
L4327454L
tp1193
sL4220934L
(F256.0
L4220941L
tp1194
sL4213761L
(F2.0
L4213853L
tp1195
sL4335625L
(F21.333333333333332
L4335635L
tp1196
sL4220941L
(F256.0
L4220982L
tp1197
sL4302862L
(F4.0
L4302900L
tp1198
sL4212753L
(F64.0
L4212824L
tp1199
sL4335635L
(F42.666666666666664
L4335645L
tp1200
sL4237332L
(F134217728.0
L4237339L
tp1201
sL4278295L
(F21.333333333333332
L4278306L
tp1202
sL4237339L
(F134217728.0
L4237394L
tp1203
sL4319260L
(F32.0
L4319275L
tp1204
sL4335645L
(F85.33333333333333
L4335660L
tp1205
sL4327454L
(F256.0
L4327469L
tp1206
sL4245535L
(F204.8
L4245547L
tp1207
sL4278306L
(F21.333333333333332
L4278331L
tp1208
sL4286500L
(F256.0
L4286558L
tp1209
sL4245547L
(F409.6
L4245592L
tp1210
sL4253740L
(F3.6363636363636362
L4253741L
tp1211
sL4253741L
(F1.0191082802547773
L4253757L
tp1212
sL4230152L
(F5741934.887700534
L4230175L
tp1213
sL4302900L
(F8.0
L4302923L
tp1214
sL4268382L
(F100.0
L4268450L
tp1215
sL4220982L
(F512.0
L4221001L
tp1216
sL4307977L
(F1.0
L4308022L
tp1217
sL4335672L
(F70.35534084809447
L4335691L
tp1218
sL4319290L
(F128.0
L4319305L
tp1219
sL4229179L
(F2021161080.4705882
L4229188L
tp1220
sL4253757L
(F2.0382165605095546
L4253762L
tp1221
sL4253762L
(F2.0382165605095546
L4253772L
tp1222
sL4311107L
(F6.4
L4311113L
tp1223
sL4229188L
(F4042322160.9411764
L4229212L
tp1224
sL4327494L
(F512.0
L4327509L
tp1225
sL4311113L
(F12.8
L4311150L
tp1226
sL4325574L
(F36.57142857142857
L4325599L
tp1227
sL4335691L
(F140.71068169618894
L4335721L
tp1228
sL4253772L
(F1.0
L4253827L
tp1229
sL4316173L
(F4.571428571428571
L4316180L
tp1230
sL4237394L
(F33554432.0
L4237467L
tp1231
sL4319316L
(F512.0
L4319327L
tp1232
sL4327509L
(F1024.0
L4327555L
tp1233
sL4308695L
(F36.0
L4308721L
tp1234
sL4212824L
(F32.0
L4212831L
tp1235
sL4229212L
(F4042322160.9411764
L4229227L
tp1236
sL4236986L
(F67108864.0
L4237013L
tp1237
sL4278366L
(F21.333333333333332
L4278386L
tp1238
sL4212831L
(F64.0
L4212841L
tp1239
sL4261984L
(F2.0
L4261989L
tp1240
sL4246204L
(F4.0
L4246209L
tp1241
sL4261989L
(F2.0
L4261991L
tp1242
sL4261991L
(F1.0
L4262121L
tp1243
sL4212841L
(F32.0
L4212864L
tp1244
sL4319338L
(F2048.0
L4319349L
tp1245
sL4219239L
(F2.0
L4219257L
tp1246
sL4245612L
(F409.6
L4245657L
tp1247
sL4286573L
(F128.0
L4286581L
tp1248
sL4311150L
(F25.6
L4311160L
tp1249
sL4276584L
(F16.0
L4276599L
tp1250
sL4229234L
(F4042322160.9411764
L4229284L
tp1251
sL4249720L
(F1.0
L4249770L
tp1252
sL4221045L
(F1.0
L4221060L
tp1253
sL4270198L
(F1.3333333333333333
L4270210L
tp1254
sL4311160L
(F25.6
L4311176L
tp1255
sL4228799L
(F4042322160.9411764
L4228806L
tp1256
sL4302972L
(F21.333333333333332
L4302997L
tp1257
sL4278397L
(F42.666666666666664
L4278422L
tp1258
sL4212864L
(F64.0
L4212935L
tp1259
sL4241088L
(F34359738368.0
L4241162L
tp1260
sL4270210L
(F2.6666666666666665
L4270225L
tp1261
sL4253827L
(F2.0
L4253834L
tp1262
sL4221060L
(F2.0
L4221065L
tp1263
sL4302529L
(F4.0
L4302546L
tp1264
sL4311176L
(F51.2
L4311186L
tp1265
sL4221065L
(F2.0
L4221067L
tp1266
sL4253834L
(F2.0
L4253839L
tp1267
sL4221067L
(F1.0
L4221125L
tp1268
sL4269762L
(F133.33333333333334
L4269819L
tp1269
sL4307233L
(F16.0
L4307267L
tp1270
sL4253839L
(F1.0
L4253857L
tp1271
sL4234499L
(F4194304.0
L4234514L
tp1272
sL4270225L
(F1.0
L4270235L
tp1273
sL4311186L
(F3.9384615384615387
L4311223L
tp1274
sL4314449L
(F8.0
L4314451L
tp1275
sL4302997L
(F10.666666666666666
L4303014L
tp1276
sL4278422L
(F21.333333333333332
L4278436L
tp1277
sL4246553L
(F4.0
L4246557L
tp1278
sL4245657L
(F4.073590497174096
L4245745L
tp1279
sL4237467L
(F67108864.0
L4237474L
tp1280
sL4286621L
(F512.0
L4286679L
tp1281
sL4305127L
(F21.333333333333332
L4305152L
tp1282
sL4253857L
(F2.0
L4253864L
tp1283
sL4237474L
(F67108864.0
L4237529L
tp1284
sL4229284L
(F1010580540.2352941
L4229320L
tp1285
sL4335781L
(F1125.6854535695115
L4335788L
tp1286
sL4270246L
(F4.0
L4270258L
tp1287
sL4235633L
(F8388608.0
L4235648L
tp1288
sL4253864L
(F2.0
L4253869L
tp1289
sL4327594L
(F256.0
L4327604L
tp1290
sL4227013L
(F48122882.86834734
L4227072L
tp1291
sL4319404L
(F131072.0
L4319415L
tp1292
sL4253869L
(F1.0
L4253896L
tp1293
sL4246557L
(F8.0
L4246559L
tp1294
sL4270258L
(F28.0
L4270273L
tp1295
sL4215155L
(F12.0
L4215173L
tp1296
sL4327604L
(F32.0
L4327629L
tp1297
sL4311223L
(F7.876923076923077
L4311233L
tp1298
sL4335802L
(F281.4213633923779
L4335809L
tp1299
sL4230175L
(F11483869.775401069
L4230234L
tp1300
sL4303039L
(F21.333333333333332
L4303154L
tp1301
sL4270273L
(F28.0
L4270288L
tp1302
sL4319426L
(F524288.0
L4319437L
tp1303
sL4299127L
(F4.0
L4299142L
tp1304
sL4221125L
(F2.0
L4221222L
tp1305
sL4335814L
(F93.80712113079262
L4335817L
tp1306
sL4212935L
(F32.0
L4212942L
tp1307
sL4229320L
(F2021161080.4705882
L4229333L
tp1308
sL4335817L
(F170.66666666666666
L4335840L
tp1309
sL4319437L
(F31.993165522501908
L4319451L
tp1310
sL4212942L
(F64.0
L4212949L
tp1311
sL4270288L
(F28.0
L4270303L
tp1312
sL4212949L
(F32.0
L4212972L
tp1313
sL4286679L
(F512.0
L4286694L
tp1314
sL4237529L
(F16777216.0
L4237557L
tp1315
sL4319451L
(F31.992189406883085
L4319462L
tp1316
sL4270303L
(F28.0
L4270318L
tp1317
sL4335840L
(F341.3333333333333
L4335863L
tp1318
sL4212432L
(F48.0
L4212456L
tp1319
sL4286694L
(F256.0
L4286698L
tp1320
sL4262121L
(F2.0
L4262126L
tp1321
sL4286698L
(F512.0
L4286708L
tp1322
sL4299815L
(F8.0
L4299819L
tp1323
sL4212972L
(F64.0
L4213012L
tp1324
sL4262126L
(F2.0
L4262128L
tp1325
sL4262128L
(F1.0
L4262178L
tp1326
sL4245745L
(F8.147180994348192
L4245752L
tp1327
sL4286708L
(F4.0
L4286711L
tp1328
sL4237557L
(F33554432.0
L4237570L
tp1329
sL4335863L
(F682.6666666666666
L4335882L
tp1330
sL4245752L
(F8.147180994348192
L4245758L
tp1331
sL4294906L
(F21.333333333333332
L4294909L
tp1332
sL4311292L
(F3.2
L4311298L
tp1333
sL4286717L
(F32.0
L4286720L
tp1334
sL4245758L
(F1.0045368062309834
L4245773L
tp1335
sL4286720L
(F64.0
L4286723L
tp1336
sL4317568L
(F32.0
L4317573L
tp1337
sL4237570L
(F67108864.0
L4237585L
tp1338
sL4286723L
(F128.0
L4286726L
tp1339
sL4270341L
(F2.0000000000000004
L4270351L
tp1340
sL4286726L
(F256.0
L4286729L
tp1341
sL4240481L
(F8589934592.0
L4240580L
tp1342
sL4286729L
(F512.0
L4286730L
tp1343
sL4286730L
(F2.007843137254902
L4287381L
tp1344
sL4245773L
(F2.009073612461967
L4245778L
tp1345
sL4216732L
(F1.0
L4216766L
tp1346
sL4270351L
(F4.000000000000001
L4270364L
tp1347
sL4237585L
(F134217728.0
L4237611L
tp1348
sL4245778L
(F2.009073612461967
L4245792L
tp1349
sL4223363L
(F32.0
L4223378L
tp1350
sL4213012L
(F32.0
L4213019L
tp1351
sL4213019L
(F64.0
L4213021L
tp1352
sL4270364L
(F36.000000000000014
L4270408L
tp1353
sL4213021L
(F32.0
L4213028L
tp1354
sL4317573L
(F1.0616899948159668
L4317575L
tp1355
sL4245792L
(F1.0
L4245815L
tp1356
sL4262178L
(F2.0
L4262207L
tp1357
sL4213028L
(F3.5555555555555554
L4213029L
tp1358
sL4213029L
(F1.0491803278688525
L4213035L
tp1359
sL4221222L
(F4.0
L4221351L
tp1360
sL4294951L
(F4.0
L4294953L
tp1361
sL4302556L
(F8.0
L4302671L
tp1362
sL4235655L
(F16777216.0
L4235710L
tp1363
sL4229420L
(F8084644321.882353
L4229478L
tp1364
sL4237616L
(F536870912.0
L4237618L
tp1365
sL4215176L
(F12.0
L4215177L
tp1366
sL4303154L
(F42.666666666666664
L4303428L
tp1367
sL4319541L
(F511.87503051012936
L4319560L
tp1368
sL4245815L
(F2.0
L4245820L
tp1369
sL4335929L
(F1820.4444444444443
L4335953L
tp1370
sL4216543L
(F2.0779220779220777
L4216548L
tp1371
sL4245820L
(F4.0
L4245825L
tp1372
sL4252042L
(F2.0
L4252051L
tp1373
sL4262207L
(F4.0
L4262226L
tp1374
sL4226571L
(F28071681.673202615
L4226618L
tp1375
sL4220640L
(F2.9854227405247813
L4220645L
tp1376
sL4237636L
(F536870912.0
L4237653L
tp1377
sL4327749L
(F512.0
L4327764L
tp1378
sL4245832L
(F2.0
L4245839L
tp1379
sL4245839L
(F4.0
L4245846L
tp1380
sL4335953L
(F3640.8888888888887
L4335981L
tp1381
sL4262226L
(F2.0
L4262261L
tp1382
sL4327764L
(F1024.0
L4327789L
tp1383
sL4237653L
(F268435456.0
L4237726L
tp1384
sL4245846L
(F8.0
L4245851L
tp1385
sL4319575L
(F2047.5001220405175
L4319590L
tp1386
sL4245851L
(F1.0
L4245853L
tp1387
sL4245853L
(F1.0
L4245874L
tp1388
sL4220645L
(F2.9854227405247813
L4220647L
tp1389
sL4217915L
(F2.0
L4217926L
tp1390
sL4311396L
(F11.377777777777778
L4311406L
tp1391
sL4265702L
(F1.0666666666666667
L4265709L
tp1392
sL4319590L
(F2047.5001220405175
L4319605L
tp1393
sL4309393L
(F21.333333333333332
L4309398L
tp1394
sL4278633L
(F21.333333333333332
L4278651L
tp1395
sL4223299L
(F85.33333333333333
L4223344L
tp1396
sL4306663L
(F2.0
L4306683L
tp1397
sL4229485L
(F8084644321.882353
L4229540L
tp1398
sL4311406L
(F6.826666666666667
L4311433L
tp1399
sL4245874L
(F2.0
L4245886L
tp1400
sL4295027L
(F2.0
L4295052L
tp1401
sL4270452L
(F36.000000000000014
L4270489L
tp1402
sL4262261L
(F4.0
L4262273L
tp1403
sL4278651L
(F5.333333333333333
L4278770L
tp1404
sL4327804L
(F2048.0
L4327850L
tp1405
sL4335338L
(F21.333333333333332
L4335353L
tp1406
sL4245886L
(F16.0
L4245893L
tp1407
sL4336000L
(F2080.5079365079364
L4336024L
tp1408
sL4262273L
(F1.3333333333333333
L4262278L
tp1409
sL4319620L
(F8190.00048816207
L4319635L
tp1410
sL4245893L
(F16.0
L4245900L
tp1411
sL4262278L
(F1.0
L4262285L
tp1412
sL4311433L
(F13.653333333333334
L4311480L
tp1413
sL4284365L
(F4.0
L4284371L
tp1414
sL4245900L
(F16.0
L4245907L
tp1415
sL4262285L
(F1.0
L4262300L
tp1416
sL4213138L
(F2.0
L4213143L
tp1417
sL4245907L
(F16.0
L4245914L
tp1418
sL4216558L
(F1.0
L4216592L
tp1419
sL4213143L
(F2.0
L4213145L
tp1420
sL4336024L
(F4161.015873015873
L4336052L
tp1421
sL4254105L
(F1.0
L4254215L
tp1422
sL4245914L
(F16.0
L4245921L
tp1423
sL4262300L
(F2.0
L4262312L
tp1424
sL4237726L
(F536870912.0
L4237800L
tp1425
sL4245921L
(F16.0
L4245928L
tp1426
sL4319650L
(F8190.00048816207
L4319665L
tp1427
sL4229540L
(F4042322160.9411764
L4229549L
tp1428
sL4217926L
(F1.3333333333333333
L4217931L
tp1429
sL4221351L
(F4.0
L4221370L
tp1430
sL4245928L
(F16.0
L4245935L
tp1431
sL4327850L
(F256.0
L4327888L
tp1432
sL4262315L
(F1.0
L4262740L
tp1433
sL4242396L
(F97734366913.42223
L4242407L
tp1434
sL4229549L
(F8084644321.882353
L4229564L
tp1435
sL4295086L
(F2.6666666666666665
L4295093L
tp1436
sL4245935L
(F1.7777777777777777
L4245940L
tp1437
sL4319665L
(F16380.00097632414
L4319680L
tp1438
sL4245940L
(F1.0
L4245942L
tp1439
sL4295093L
(F5.333333333333333
L4295120L
tp1440
sL4245942L
(F1.0
L4245966L
tp1441
sL4311480L
(F9.102222222222222
L4311519L
tp1442
sL4221370L
(F8.0
L4221571L
tp1443
sL4229564L
(F16169288643.764706
L4229571L
tp1444
sL4270526L
(F36.000000000000014
L4270560L
tp1445
sL4268311L
(F1.0
L4268360L
tp1446
sL4229571L
(F8084644321.882353
L4229621L
tp1447
sL4213193L
(F1.0
L4213291L
tp1448
sL4336075L
(F2377.7233560090704
L4336098L
tp1449
sL4245966L
(F2.0
L4245978L
tp1450
sL4319695L
(F89.75343000725556
L4319702L
tp1451
sL4295120L
(F3.5555555555555554
L4295259L
tp1452
sL4230955L
(F128.0
L4230964L
tp1453
sL4277859L
(F4.0
L4277899L
tp1454
sL4319702L
(F127.96875762753234
L4319717L
tp1455
sL4245978L
(F12.0
L4245990L
tp1456
sL4311519L
(F27.30666666666667
L4311534L
tp1457
sL4270560L
(F36.000000000000014
L4270601L
tp1458
sL4271184L
(F1.3333333333333337
L4271189L
tp1459
sL4336098L
(F4755.446712018141
L4336121L
tp1460
sL4306683L
(F4.0
L4306798L
tp1461
sL4319717L
(F255.93751525506468
L4319736L
tp1462
sL4245990L
(F24.0
L4245997L
tp1463
sL4275281L
(F1.0
L4275432L
tp1464
sL4237800L
(F1073741824.0
L4237807L
tp1465
sL4327916L
(F256.0
L4327938L
tp1466
sL4245997L
(F24.0
L4246004L
tp1467
sL4311534L
(F6.826666666666667
L4311538L
tp1468
sL4237807L
(F1073741824.0
L4237867L
tp1469
sL4278770L
(F10.666666666666666
L4278784L
tp1470
sL4246004L
(F12.0
L4246016L
tp1471
sL4229621L
(F4042322160.9411764
L4229634L
tp1472
sL4319736L
(F511.87503051012936
L4319755L
tp1473
sL4311545L
(F13.653333333333334
L4311583L
tp1474
sL4298495L
(F4.0
L4298505L
tp1475
sL4288938L
(F2.0
L4288963L
tp1476
sL4246613L
(F16.0
L4246626L
tp1477
sL4246016L
(F24.0
L4246023L
tp1478
sL4323072L
(F4.0
L4323097L
tp1479
sL4229634L
(F8084644321.882353
L4229649L
tp1480
sL4295766L
(F10.666666666666666
L4295767L
tp1481
sL4246023L
(F24.0
L4246030L
tp1482
sL4270601L
(F36.000000000000014
L4270635L
tp1483
sL4319755L
(F1023.7500610202587
L4319774L
tp1484
sL4246030L
(F12.0
L4246037L
tp1485
sL4336144L
(F19021.786848072563
L4336163L
tp1486
sL4229649L
(F16169288643.764706
L4229656L
tp1487
sL4278802L
(F5.333333333333333
L4278840L
tp1488
sL4246037L
(F12.0
L4246044L
tp1489
sL4229656L
(F8084644321.882353
L4229708L
tp1490
sL4246044L
(F12.0
L4246051L
tp1491
sL4319774L
(F2047.5001220405175
L4319793L
tp1492
sL4286213L
(F16.0
L4286221L
tp1493
sL4311585L
(F1.0
L4311610L
tp1494
sL4246051L
(F1.7142857142857142
L4246056L
tp1495
sL4308815L
(F4.0
L4308829L
tp1496
sL4325809L
(F18.285714285714285
L4325834L
tp1497
sL4246056L
(F1.0
L4246058L
tp1498
sL4246058L
(F1.0
L4246076L
tp1499
sL4213291L
(F2.0
L4213327L
tp1500
sL4325599L
(F73.14285714285714
L4325619L
tp1501
sL4254257L
(F4.0
L4254267L
tp1502
sL4327989L
(F2048.0
L4327996L
tp1503
sL4295866L
(F2.0
L4295961L
tp1504
sL4278840L
(F1.0
L4278879L
tp1505
sL4311610L
(F2.0
L4311647L
tp1506
sL4254267L
(F4.0
L4254307L
tp1507
sL4246076L
(F2.0
L4246081L
tp1508
sL4336191L
(F25362.38246409675
L4336210L
tp1509
sL4319808L
(F8190.00048816207
L4319823L
tp1510
sL4237889L
(F268435456.0
L4237944L
tp1511
sL4328003L
(F512.0
L4328010L
tp1512
sL4303428L
(F85.33333333333333
L4303476L
tp1513
sL4246085L
(F8.0
L4246092L
tp1514
sL4230241L
(F22967739.550802138
L4230307L
tp1515
sL4328010L
(F256.0
L4328015L
tp1516
sL4272567L
(F1.0
L4272590L
tp1517
sL4229708L
(F4042322160.9411764
L4229723L
tp1518
sL4246626L
(F1.0
L4246658L
tp1519
sL4213327L
(F1.0
L4213346L
tp1520
sL4336210L
(F50724.7649281935
L4336234L
tp1521
sL4246099L
(F4.0
L4246106L
tp1522
sL4270680L
(F1.0
L4270724L
tp1523
sL4213860L
(F2.0
L4213931L
tp1524
sL4246106L
(F8.0
L4246111L
tp1525
sL4229723L
(F8084644321.882353
L4229730L
tp1526
sL4295262L
(F10.666666666666666
L4295263L
tp1527
sL4295263L
(F4.571428571428571
L4295292L
tp1528
sL4246113L
(F1.0
L4246133L
tp1529
sL4213346L
(F2.0
L4213351L
tp1530
sL4254307L
(F8.0
L4254340L
tp1531
sL4222054L
(F16.0
L4222224L
tp1532
sL4213351L
(F2.0
L4213353L
tp1533
sL4213353L
(F1.0
L4213424L
tp1534
sL4336234L
(F101449.529856387
L4336262L
tp1535
sL4319853L
(F32760.00195264828
L4319868L
tp1536
sL4284411L
(F2.0
L4284419L
tp1537
sL4280415L
(F1.0
L4280490L
tp1538
sL4257555L
(F1.0
L4258013L
tp1539
sL4303476L
(F170.66666666666666
L4303604L
tp1540
sL4235710L
(F4194304.0
L4235783L
tp1541
sL4237944L
(F67108864.0
L4238017L
tp1542
sL4328057L
(F341.3333333333333
L4328079L
tp1543
sL4246138L
(F4.0
L4246140L
tp1544
sL4319868L
(F16380.00097632414
L4319883L
tp1545
sL4278910L
(F8.0
L4278919L
tp1546
sL4294421L
(F4.0
L4294423L
tp1547
sL4311683L
(F8.0
L4311693L
tp1548
sL4270724L
(F2.0
L4270754L
tp1549
sL4336262L
(F28985.579958967715
L4336281L
tp1550
sL4278919L
(F16.0
L4278928L
tp1551
sL4246154L
(F4.0
L4246159L
tp1552
sL4254347L
(F16.0
L4254397L
tp1553
sL4311693L
(F8.0
L4311716L
tp1554
sL4309508L
(F14.222222222222221
L4309515L
tp1555
sL4246159L
(F1.0
L4246161L
tp1556
sL4278928L
(F32.0
L4278933L
tp1557
sL4246161L
(F1.0
L4246183L
tp1558
sL4221587L
(F2.0
L4221592L
tp1559
sL4229780L
(F1010580540.2352941
L4229816L
tp1560
sL4278933L
(F64.0
L4278938L
tp1561
sL4214580L
(F32.0
L4214609L
tp1562
sL4221592L
(F2.0
L4221594L
tp1563
sL4336281L
(F57971.15991793543
L4336305L
tp1564
sL4278938L
(F8.0
L4278943L
tp1565
sL4312175L
(F54.61333333333334
L4312222L
tp1566
sL4288777L
(F2.0
L4288802L
tp1567
sL4278943L
(F16.0
L4278948L
tp1568
sL4270754L
(F4.0
L4270764L
tp1569
sL4278948L
(F32.0
L4278957L
tp1570
sL4328101L
(F1365.3333333333333
L4328123L
tp1571
sL4246183L
(F2.0
L4246188L
tp1572
sL4295337L
(F2.0
L4295362L
tp1573
sL4270764L
(F4.0
L4270834L
tp1574
sL4278957L
(F64.0
L4278962L
tp1575
sL4246190L
(F2.0
L4246197L
tp1576
sL4269853L
(F400.0
L4269863L
tp1577
sL4213424L
(F2.0
L4213516L
tp1578
sL4336305L
(F115942.31983587086
L4336333L
tp1579
sL4278962L
(F32.0
L4278967L
tp1580
sL4311731L
(F3.2
L4311814L
tp1581
sL4218743L
(F1.0
L4218745L
tp1582
sL4246197L
(F4.0
L4246204L
tp1583
sL4278967L
(F64.0
L4278972L
tp1584
sL4229816L
(F2021161080.4705882
L4229852L
tp1585
sL4328123L
(F2730.6666666666665
L4328130L
tp1586
sL4319932L
(F359.01372002902224
L4319951L
tp1587
sL4254397L
(F5.333333333333333
L4254419L
tp1588
sL4221631L
(F2.0
L4221642L
tp1589
sL4246209L
(F1.0
L4246211L
tp1590
sL4328130L
(F2730.6666666666665
L4328137L
tp1591
sL4246211L
(F1.0
L4246235L
tp1592
sL4216609L
(F1.0
L4216643L
tp1593
sL4238024L
(F134217728.0
L4238079L
tp1594
sL4328137L
(F1365.3333333333333
L4328144L
tp1595
sL4221642L
(F4.0
L4221667L
tp1596
sL4336333L
(F33126.3770959631
L4336356L
tp1597
sL4331060L
(F64280.52107279693
L4331076L
tp1598
sL4328144L
(F682.6666666666666
L4328151L
tp1599
sL4217037L
(F1.3333333333333333
L4217041L
tp1600
sL4254419L
(F2.0
L4254429L
tp1601
sL4278997L
(F128.0
L4279017L
tp1602
sL4328151L
(F341.3333333333333
L4328156L
tp1603
sL4319962L
(F32.0
L4319973L
tp1604
sL4246235L
(F2.0
L4246240L
tp1605
sL4328156L
(F170.66666666666666
L4328182L
tp1606
sL4254429L
(F1.4545454545454546
L4254434L
tp1607
sL4246240L
(F4.0
L4246244L
tp1608
sL4239824L
(F1073741824.0
L4239897L
tp1609
sL4254434L
(F1.0
L4254449L
tp1610
sL4221667L
(F4.0
L4221679L
tp1611
sL4336356L
(F66252.7541919262
L4336381L
tp1612
sL4319973L
(F64.0
L4319984L
tp1613
sL4246246L
(F4.0
L4246251L
tp1614
sL4305361L
(F2.0
L4305366L
tp1615
sL4279017L
(F64.0
L4279037L
tp1616
sL4269863L
(F800.0
L4269876L
tp1617
sL4221679L
(F8.0
L4221783L
tp1618
sL4319984L
(F128.0
L4319995L
tp1619
sL4254449L
(F2.0
L4254454L
tp1620
sL4270834L
(F8.0
L4270875L
tp1621
sL4303604L
(F341.3333333333333
L4303626L
tp1622
sL4315733L
(F32.0
L4315740L
tp1623
sL4254454L
(F2.0
L4254456L
tp1624
sL4310825L
(F12.8
L4310852L
tp1625
sL4254456L
(F1.0
L4254619L
tp1626
sL4246265L
(F2.0
L4246272L
tp1627
sL4319995L
(F256.0
L4320006L
tp1628
sL4229884L
(F8084644321.882353
L4229993L
tp1629
sL4336381L
(F132505.5083838524
L4336401L
tp1630
sL4238079L
(F33554432.0
L4238107L
tp1631
sL4246272L
(F8.0
L4246279L
tp1632
sL4311814L
(F6.4
L4311820L
tp1633
sL4246279L
(F16.0
L4246286L
tp1634
sL4226991L
(F48122882.86834734
L4227006L
tp1635
sL4303626L
(F16.0
L4303629L
tp1636
sL4213516L
(F1.0
L4213523L
tp1637
sL4303629L
(F21.333333333333332
L4303632L
tp1638
sL4246286L
(F5.333333333333333
L4246291L
tp1639
sL4249389L
(F1.3333333333333333
L4249406L
tp1640
sL4303632L
(F42.666666666666664
L4303635L
tp1641
sL4309464L
(F21.333333333333332
L4309469L
tp1642
sL4246291L
(F1.0
L4246293L
tp1643
sL4246293L
(F1.0
L4246317L
tp1644
sL4303638L
(F170.66666666666666
L4303641L
tp1645
sL4327789L
(F1024.0
L4327804L
tp1646
sL4320024L
(F32.0
L4320039L
tp1647
sL4303641L
(F341.3333333333333
L4303642L
tp1648
sL4303642L
(F6.522292993630574
L4303662L
tp1649
sL4238107L
(F67108864.0
L4238120L
tp1650
sL4299147L
(F8.0
L4299149L
tp1651
sL4317658L
(F2.0
L4317664L
tp1652
sL4336416L
(F176674.01117846987
L4336441L
tp1653
sL4295457L
(F1.0
L4295531L
tp1654
sL4328226L
(F1365.3333333333333
L4328248L
tp1655
sL4234225L
(F4194304.0
L4234250L
tp1656
sL4279077L
(F32.0
L4279097L
tp1657
sL4320039L
(F64.0
L4320065L
tp1658
sL4270888L
(F112.0
L4270965L
tp1659
sL4334044L
(F341.3333333333333
L4334059L
tp1660
sL4246317L
(F2.0
L4246329L
tp1661
sL4303662L
(F4.923076923076923
L4303677L
tp1662
sL4311857L
(F25.6
L4311867L
tp1663
sL4323971L
(F2.0
L4323989L
tp1664
sL4325854L
(F36.57142857142857
L4325869L
tp1665
sL4238135L
(F268435456.0
L4238193L
tp1666
sL4328248L
(F2730.6666666666665
L4328255L
tp1667
sL4279097L
(F64.0
L4279114L
tp1668
sL4324244L
(F546.1333333333333
L4324259L
tp1669
sL4311867L
(F25.6
L4311883L
tp1670
sL4243348L
(F1787142709274.0063
L4243384L
tp1671
sL4303677L
(F9.846153846153847
L4303682L
tp1672
sL4328255L
(F2730.6666666666665
L4328262L
tp1673
sL4246336L
(F30.0
L4246343L
tp1674
sL4320065L
(F128.0
L4320084L
tp1675
sL4303682L
(F9.846153846153847
L4303684L
tp1676
sL4303684L
(F1.0
L4303712L
tp1677
sL4328262L
(F1365.3333333333333
L4328269L
tp1678
sL4246343L
(F30.0
L4246350L
tp1679
sL4336456L
(F353348.02235693973
L4336481L
tp1680
sL4279114L
(F16.0
L4279131L
tp1681
sL4311883L
(F51.2
L4311893L
tp1682
sL4328269L
(F682.6666666666666
L4328276L
tp1683
sL4246350L
(F30.0
L4246357L
tp1684
sL4327224L
(F32.0
L4327235L
tp1685
sL4320084L
(F256.0
L4320103L
tp1686
sL4246357L
(F30.0
L4246364L
tp1687
sL4221783L
(F8.0
L4221808L
tp1688
sL4286714L
(F16.0
L4286717L
tp1689
sL4328281L
(F170.66666666666666
L4328327L
tp1690
sL4213594L
(F4.0
L4213599L
tp1691
sL4279131L
(F25.6
L4279176L
tp1692
sL4246364L
(F30.0
L4246371L
tp1693
sL4213599L
(F4.0
L4213601L
tp1694
sL4303712L
(F2.0
L4303751L
tp1695
sL4336481L
(F353348.02235693973
L4336496L
tp1696
sL4246371L
(F30.0
L4246378L
tp1697
sL4320103L
(F512.0
L4320122L
tp1698
sL4229993L
(F63161283.76470588
L4230023L
tp1699
sL4246378L
(F30.0
L4246385L
tp1700
sL4295531L
(F2.0
L4295556L
tp1701
sL4292603L
(F2.0
L4292628L
tp1702
sL4221808L
(F2.0
L4221809L
tp1703
sL4238193L
(F536870912.0
L4238202L
tp1704
sL4221811L
(F1.0
L4221857L
tp1705
sL4270965L
(F112.0
L4271063L
tp1706
sL4309481L
(F10.666666666666666
L4309497L
tp1707
sL4246392L
(F30.0
L4246399L
tp1708
sL4311930L
(F7.876923076923077
L4311940L
tp1709
sL4261695L
(F1.0
L4261872L
tp1710
sL4246399L
(F30.0
L4246406L
tp1711
sL4238209L
(F1073741824.0
L4238214L
tp1712
sL4295556L
(F2.0
L4295563L
tp1713
sL4246406L
(F30.0
L4246413L
tp1714
sL4303751L
(F2.0
L4303763L
tp1715
sL4279176L
(F51.2
L4279212L
tp1716
sL4320137L
(F2048.0
L4320152L
tp1717
sL4295563L
(F4.0
L4295590L
tp1718
sL4295059L
(F4.0
L4295086L
tp1719
sL4246413L
(F30.0
L4246420L
tp1720
sL4313581L
(F5.333333333333333
L4313591L
tp1721
sL4328337L
(F85.33333333333333
L4328363L
tp1722
sL4303763L
(F4.0
L4303934L
tp1723
sL4246420L
(F30.0
L4246427L
tp1724
sL4287381L
(F2.0
L4287383L
tp1725
sL4250323L
(F4.0
L4250330L
tp1726
sL4287383L
(F1.0
L4287402L
tp1727
sL4320152L
(F2048.0
L4320167L
tp1728
sL4228932L
(F4042322160.9411764
L4228939L
tp1729
sL4254619L
(F2.0
L4254661L
tp1730
sL4336542L
(F88337.00558923493
L4336581L
tp1731
sL4246432L
(F1.0
L4246434L
tp1732
sL4221857L
(F2.0
L4221873L
tp1733
sL4246434L
(F1.0
L4246451L
tp1734
sL4319883L
(F32760.00195264828
L4319898L
tp1735
sL4295590L
(F2.6666666666666665
L4295597L
tp1736
sL4320167L
(F4096.0
L4320182L
tp1737
sL4287402L
(F2.0
L4287427L
tp1738
sL4328363L
(F256.0
L4328369L
tp1739
sL4279212L
(F51.2
L4279236L
tp1740
sL4295597L
(F5.333333333333333
L4295624L
tp1741
sL4238254L
(F2147483648.0
L4238261L
tp1742
sL4230063L
(F5741934.887700534
L4230078L
tp1743
sL4328369L
(F512.0
L4328385L
tp1744
sL4246451L
(F2.0
L4246456L
tp1745
sL4238261L
(F2147483648.0
L4238321L
tp1746
sL4320182L
(F8192.0
L4320197L
tp1747
sL4246456L
(F4.0
L4246458L
tp1748
sL4221881L
(F8.0
L4221886L
tp1749
sL4246458L
(F2.0
L4246465L
tp1750
sL4221886L
(F16.0
L4221890L
tp1751
sL4311999L
(F3.2
L4312005L
tp1752
sL4246465L
(F4.0
L4246472L
tp1753
sL4221890L
(F32.0
L4221892L
tp1754
sL4287427L
(F2.0
L4287585L
tp1755
sL4279236L
(F2.0
L4279241L
tp1756
sL4254661L
(F4.0
L4254668L
tp1757
sL4331341L
(F2008.766283524904
L4331366L
tp1758
sL4295624L
(F3.5555555555555554
L4295763L
tp1759
sL4279241L
(F1.0
L4279255L
tp1760
sL4215287L
(F40.0
L4215343L
tp1761
sL4254668L
(F4.0
L4254712L
tp1762
sL4246477L
(F1.0
L4246479L
tp1763
sL4221902L
(F64.0
L4221904L
tp1764
sL4336591L
(F41.19486985684998
L4336616L
tp1765
sL4221904L
(F32.0
L4221914L
tp1766
sL4320212L
(F8192.0
L4320227L
tp1767
sL4328406L
(F1024.0
L4328431L
tp1768
sL4279255L
(F2.0
L4279268L
tp1769
sL4221914L
(F8.0
L4221924L
tp1770
sL4248962L
(F1.0
L4248977L
tp1771
sL4313611L
(F10.666666666666666
L4313638L
tp1772
sL4320227L
(F16384.0
L4320242L
tp1773
sL4279268L
(F1.0
L4279291L
tp1774
sL4336616L
(F82.38973971369995
L4336636L
tp1775
sL4218683L
(F2.0
L4218688L
tp1776
sL4312042L
(F12.8
L4312052L
tp1777
sL4218023L
(F4.0
L4218033L
tp1778
sL4265810L
(F1.0
L4265812L
tp1779
sL4221934L
(F64.0
L4221944L
tp1780
sL4328431L
(F2048.0
L4328447L
tp1781
sL4315521L
(F4.0
L4315526L
tp1782
sL4238321L
(F268435456.0
L4238336L
tp1783
sL4320242L
(F8192.0
L4320257L
tp1784
sL4312052L
(F4.266666666666667
L4312063L
tp1785
sL4254712L
(F2.0
L4254722L
tp1786
sL4278100L
(F1.3333333333333333
L4278111L
tp1787
sL4279291L
(F2.0
L4279308L
tp1788
sL4336636L
(F82.38973971369995
L4336651L
tp1789
sL4312063L
(F8.533333333333333
L4312087L
tp1790
sL4238336L
(F536870912.0
L4238343L
tp1791
sL4320257L
(F89.77534246575343
L4320264L
tp1792
sL4254722L
(F1.3333333333333333
L4254727L
tp1793
sL4209835L
(F1.3333333333333333
L4209840L
tp1794
sL4301337L
(F256.0
L4301349L
tp1795
sL4302678L
(F16.0
L4302700L
tp1796
sL4238343L
(F536870912.0
L4238398L
tp1797
sL4320264L
(F64.0
L4320275L
tp1798
sL4241379L
(F17179869184.0
L4241386L
tp1799
sL4269911L
(F2133.3333333333335
L4269921L
tp1800
sL4279308L
(F1.0
L4279311L
tp1801
sL4279311L
(F1.0
L4279329L
tp1802
sL4320275L
(F128.0
L4320281L
tp1803
sL4246548L
(F2.0
L4246553L
tp1804
sL4254742L
(F2.0
L4254747L
tp1805
sL4312087L
(F5.688888888888889
L4312103L
tp1806
sL4320281L
(F256.0
L4320295L
tp1807
sL4254747L
(F2.0
L4254749L
tp1808
sL4254749L
(F1.0
L4254842L
tp1809
sL4246559L
(F4.0
L4246564L
tp1810
sL4325070L
(F2.0
L4325095L
tp1811
sL4279329L
(F1.0
L4279366L
tp1812
sL4246564L
(F8.0
L4246569L
tp1813
sL4338182L
(F128.0
L4338193L
tp1814
sL4312103L
(F11.377777777777778
L4312113L
tp1815
sL4246569L
(F16.0
L4246571L
tp1816
sL4246571L
(F8.0
L4246585L
tp1817
sL4328495L
(F4096.0
L4328505L
tp1818
sL4267348L
(F1365.3333333333333
L4267371L
tp1819
sL4312113L
(F6.826666666666667
L4312128L
tp1820
sL4225067L
(F8192.0
L4225076L
tp1821
sL4320310L
(F256.0
L4320321L
tp1822
sL4271159L
(F112.0
L4271183L
tp1823
sL4336696L
(F329.5589588547998
L4336711L
tp1824
sL4246585L
(F2.0
L4246599L
tp1825
sL4333800L
(F21.333333333333332
L4333825L
tp1826
sL4238398L
(F134217728.0
L4238471L
tp1827
sL4312128L
(F13.653333333333334
L4312148L
tp1828
sL4320321L
(F512.0
L4320336L
tp1829
sL4317707L
(F8.0
L4317718L
tp1830
sL4218038L
(F1.0
L4218040L
tp1831
sL4279366L
(F1.0
L4279437L
tp1832
sL4336711L
(F659.1179177095996
L4336736L
tp1833
sL4271183L
(F16.0
L4271184L
tp1834
sL4320336L
(F512.0
L4320347L
tp1835
sL4226232L
(F3947580.2352941176
L4226288L
tp1836
sL4328530L
(F2048.0
L4328546L
tp1837
sL4295763L
(F8.0
L4295766L
tp1838
sL4312148L
(F27.30666666666667
L4312175L
tp1839
sL4271189L
(F1.0000000000000002
L4271204L
tp1840
sL4222038L
(F8.0
L4222054L
tp1841
sL4295767L
(F4.571428571428571
L4295796L
tp1842
sL4230234L
(F22967739.550802138
L4230241L
tp1843
sL4320347L
(F1024.0
L4320366L
tp1844
sL4213853L
(F1.0
L4213860L
tp1845
sL4303966L
(F8.0
L4303974L
tp1846
sL4336736L
(F659.1179177095996
L4336751L
tp1847
sL4287585L
(F4.0
L4287619L
tp1848
sL4328546L
(F2048.0
L4328636L
tp1849
sL4278972L
(F128.0
L4278977L
tp1850
sL4271204L
(F2.0000000000000004
L4271209L
tp1851
sL4216678L
(F2.0
L4216689L
tp1852
sL4303974L
(F16.0
L4304010L
tp1853
sL4283006L
(F2.0
L4283016L
tp1854
sL4271209L
(F2.0000000000000004
L4271211L
tp1855
sL4271211L
(F1.0
L4271251L
tp1856
sL4302149L
(F2.0
L4302174L
tp1857
sL4252178L
(F4.0
L4252190L
tp1858
sL4320366L
(F1024.0
L4320377L
tp1859
sL4336751L
(F1318.2358354191992
L4336776L
tp1860
sL4266970L
(F2.0
L4267004L
tp1861
sL4208488L
(F1.3333333333333333
L4208490L
tp1862
sL4286334L
(F32.0
L4286342L
tp1863
sL4295796L
(F2.0
L4295798L
tp1864
sL4324542L
(F19.50476456207519
L4324552L
tp1865
sL4295798L
(F1.0
L4295841L
tp1866
sL4263031L
(F2.0
L4263036L
tp1867
sL4320377L
(F2048.0
L4320388L
tp1868
sL4254842L
(F1.0
L4254874L
tp1869
sL4283879L
(F12.8
L4283900L
tp1870
sL4263036L
(F2.0
L4263038L
tp1871
sL4263038L
(F1.0
L4263112L
tp1872
sL4293976L
(F4.590963222416812
L4293991L
tp1873
sL4283584L
(F64.0
L4283636L
tp1874
sL4246658L
(F2.0
L4246665L
tp1875
sL4287619L
(F2.0
L4287646L
tp1876
sL4320388L
(F2048.0
L4320399L
tp1877
sL4238471L
(F268435456.0
L4238478L
tp1878
sL4336776L
(F1318.2358354191992
L4336791L
tp1879
sL4302700L
(F4.0
L4302715L
tp1880
sL4304010L
(F16.0
L4304018L
tp1881
sL4279437L
(F1.0
L4279515L
tp1882
sL4238478L
(F268435456.0
L4238533L
tp1883
sL4320399L
(F4096.0
L4320414L
tp1884
sL4309528L
(F21.333333333333332
L4309549L
tp1885
sL4304018L
(F32.0
L4304054L
tp1886
sL4271251L
(F2.0
L4271281L
tp1887
sL4294510L
(F2.0
L4294535L
tp1888
sL4336791L
(F2636.4716708383985
L4336837L
tp1889
sL4254874L
(F1.0
L4254903L
tp1890
sL4246683L
(F2.0
L4246688L
tp1891
sL4320414L
(F4096.0
L4320425L
tp1892
sL4238533L
(F67108864.0
L4238561L
tp1893
sL4246688L
(F2.0
L4246690L
tp1894
sL4295841L
(F2.0
L4295866L
tp1895
sL4246690L
(F1.0
L4246751L
tp1896
sL4230307L
(F64.0
L4230341L
tp1897
sL4320425L
(F8192.0
L4320436L
tp1898
sL4213931L
(F4.0
L4213936L
tp1899
sL4221963L
(F8.0
L4222038L
tp1900
sL4271281L
(F4.0
L4271288L
tp1901
sL4213938L
(F1.0
L4214086L
tp1902
sL4320436L
(F16384.0
L4320451L
tp1903
sL4304054L
(F32.0
L4304058L
tp1904
sL4254903L
(F1.0
L4254953L
tp1905
sL4271288L
(F4.0
L4271354L
tp1906
sL4265844L
(F1.0
L4265863L
tp1907
sL4304058L
(F2.0
L4304119L
tp1908
sL4328636L
(F4096.0
L4328643L
tp1909
sL4216693L
(F1.0
L4216695L
tp1910
sL4275984L
(F4.0
L4275995L
tp1911
sL4330525L
(F2008.766283524904
L4330550L
tp1912
sL4320451L
(F32768.0
L4320466L
tp1913
sL4230341L
(F128.0
L4230350L
tp1914
sL4263112L
(F1.0
L4263145L
tp1915
sL4234444L
(F11184810.666666666
L4234499L
tp1916
sL4335479L
(F10.666666666666666
L4335494L
tp1917
sL4230350L
(F256.0
L4230367L
tp1918
sL4220158L
(F4.266666666666667
L4220162L
tp1919
sL4278136L
(F1.3333333333333333
L4278157L
tp1920
sL4320466L
(F32768.0
L4320481L
tp1921
sL4293155L
(F2.6666666666666665
L4293171L
tp1922
sL4312276L
(F27.30666666666667
L4312280L
tp1923
sL4312280L
(F54.61333333333334
L4312290L
tp1924
sL4279515L
(F1.0
L4279547L
tp1925
sL4230367L
(F512.0
L4230382L
tp1926
sL4238561L
(F134217728.0
L4238574L
tp1927
sL4312290L
(F54.61333333333334
L4312333L
tp1928
sL4327291L
(F128.0
L4327306L
tp1929
sL4246756L
(F4.0
L4246760L
tp1930
sL4246760L
(F8.0
L4246762L
tp1931
sL4254953L
(F2.0
L4254982L
tp1932
sL4246762L
(F4.0
L4246767L
tp1933
sL4336875L
(F219.70597256986653
L4336892L
tp1934
sL4238574L
(F268435456.0
L4238671L
tp1935
sL4246767L
(F8.0
L4246772L
tp1936
sL4263152L
(F2.0
L4263191L
tp1937
sL4251528L
(F1.0
L4251578L
tp1938
sL4246772L
(F16.0
L4246774L
tp1939
sL4269950L
(F400.0
L4269955L
tp1940
sL4246774L
(F8.0
L4246795L
tp1941
sL4304119L
(F4.0
L4304260L
tp1942
sL4328660L
(F4.0
L4328697L
tp1943
sL4271354L
(F1.3333333333333333
L4271359L
tp1944
sL4279547L
(F1.0
L4279584L
tp1945
sL4336892L
(F164.7794794273999
L4336903L
tp1946
sL4264490L
(F16.0
L4264495L
tp1947
sL4271359L
(F1.0
L4271374L
tp1948
sL4328704L
(F8.0
L4328737L
tp1949
sL4254982L
(F4.0
L4255001L
tp1950
sL4336903L
(F329.5589588547998
L4336925L
tp1951
sL4320522L
(F512.0
L4320536L
tp1952
sL4246795L
(F2.0
L4246816L
tp1953
sL4312333L
(F9.102222222222222
L4312370L
tp1954
sL4271374L
(F2.0
L4271379L
tp1955
sL4309549L
(F14.222222222222221
L4309563L
tp1956
sL4222224L
(F16.0
L4222278L
tp1957
sL4271379L
(F2.0
L4271381L
tp1958
sL4246244L
(F8.0
L4246246L
tp1959
sL4263191L
(F4.0
L4263210L
tp1960
sL4320536L
(F939.584229390681
L4320543L
tp1961
sL4255001L
(F2.0
L4255036L
tp1962
sL4214780L
(F4.0
L4214792L
tp1963
sL4215343L
(F40.0
L4215358L
tp1964
sL4336925L
(F659.1179177095996
L4336947L
tp1965
sL4319109L
(F2.2857142857142856
L4319120L
tp1966
sL4246816L
(F8.0
L4246837L
tp1967
sL4328737L
(F1.28
L4328739L
tp1968
sL4230434L
(F128.0
L4230443L
tp1969
sL4328739L
(F1.0
L4328841L
tp1970
sL4335494L
(F21.333333333333332
L4335505L
tp1971
sL4218055L
(F2.0
L4218074L
tp1972
sL4311893L
(F3.9384615384615387
L4311930L
tp1973
sL4263210L
(F4.0
L4263256L
tp1974
sL4230443L
(F256.0
L4230460L
tp1975
sL4295980L
(F2.0
L4296005L
tp1976
sL4320558L
(F1024.0
L4320571L
tp1977
sL4218869L
(F1.0
L4218871L
tp1978
sL4312370L
(F18.204444444444444
L4312380L
tp1979
sL4231731L
(F2048.0
L4231760L
tp1980
sL4246837L
(F16.0
L4246858L
tp1981
sL4246751L
(F2.0
L4246756L
tp1982
sL4230460L
(F512.0
L4230475L
tp1983
sL4327306L
(F256.0
L4327325L
tp1984
sL4279616L
(F1.0
L4279651L
tp1985
sL4271425L
(F2.0
L4271455L
tp1986
sL4320578L
(F2048.0
L4320593L
tp1987
sL4296005L
(F2.0
L4296023L
tp1988
sL4222278L
(F2.0
L4222279L
tp1989
sL4222279L
(F1.0
L4222281L
tp1990
sL4255048L
(F1.3333333333333333
L4255053L
tp1991
sL4222281L
(F1.0
L4222299L
tp1992
sL4246858L
(F5.333333333333333
L4246863L
tp1993
sL4230475L
(F1024.0
L4230482L
tp1994
sL4255053L
(F1.0
L4255060L
tp1995
sL4238671L
(F536870912.0
L4238745L
tp1996
sL4336976L
(F2636.4716708383985
L4336983L
tp1997
sL4320593L
(F4096.0
L4320615L
tp1998
sL4230482L
(F512.0
L4230527L
tp1999
sL4255060L
(F1.0
L4255075L
tp2000
sL4306830L
(F2.1333333333333333
L4306832L
tp2001
sL4296023L
(F4.0
L4296035L
tp2002
sL4263256L
(F1.0
L4263258L
tp2003
sL4218084L
(F1.3333333333333333
L4218089L
tp2004
sL4263258L
(F1.0
L4263281L
tp2005
sL4222299L
(F2.0
L4222311L
tp2006
sL4246878L
(F2.0
L4246883L
tp2007
sL4271455L
(F4.0
L4271465L
tp2008
sL4208528L
(F1.0
L4208539L
tp2009
sL4296035L
(F24.0
L4296065L
tp2010
sL4336997L
(F329.5589588547998
L4337002L
tp2011
sL4319898L
(F65520.00390529656
L4319913L
tp2012
sL4222311L
(F24.0
L4222318L
tp2013
sL4271465L
(F4.0
L4271479L
tp2014
sL4337002L
(F219.70597256986653
L4337044L
tp2015
sL4269970L
(F3.206412825651303
L4269975L
tp2016
sL4222318L
(F24.0
L4222325L
tp2017
sL4255087L
(F1.0
L4255090L
tp2018
sL4263281L
(F2.0
L4263293L
tp2019
sL4255090L
(F1.0
L4255215L
tp2020
sL4222325L
(F24.0
L4222332L
tp2021
sL4333745L
(F5.333333333333333
L4333760L
tp2022
sL4263145L
(F2.0
L4263152L
tp2023
sL4289347L
(F4.0
L4289381L
tp2024
sL4214140L
(F1.0
L4214147L
tp2025
sL4263293L
(F4.0
L4263312L
tp2026
sL4230527L
(F128.0
L4230540L
tp2027
sL4246913L
(F2.0
L4246918L
tp2028
sL4312261L
(F109.22666666666667
L4312276L
tp2029
sL4222339L
(F24.0
L4222346L
tp2030
sL4304260L
(F1.3333333333333333
L4304262L
tp2031
sL4271493L
(F5.333333333333333
L4271500L
tp2032
sL4312454L
(F24.27259259259259
L4312493L
tp2033
sL4328841L
(F2.0
L4328851L
tp2034
sL4222346L
(F24.0
L4222353L
tp2035
sL4279691L
(F1.0
L4279740L
tp2036
sL4230540L
(F256.0
L4230553L
tp2037
sL4317762L
(F14.222222222222221
L4317773L
tp2038
sL4263312L
(F8.0
L4263324L
tp2039
sL4271505L
(F4.0
L4271600L
tp2040
sL4328851L
(F4.0
L4328883L
tp2041
sL4337044L
(F439.41194513973306
L4337066L
tp2042
sL4230382L
(F1024.0
L4230389L
tp2043
sL4214166L
(F4.0
L4214171L
tp2044
sL4222360L
(F24.0
L4222367L
tp2045
sL4238745L
(F1073741824.0
L4238752L
tp2046
sL4320666L
(F32768.0
L4320673L
tp2047
sL4214171L
(F4.0
L4214173L
tp2048
sL4263324L
(F1.0666666666666667
L4263334L
tp2049
sL4214173L
(F1.0
L4214355L
tp2050
sL4260421L
(F2.0
L4260423L
tp2051
sL4238752L
(F1073741824.0
L4238812L
tp2052
sL4320496L
(F131072.0
L4320511L
tp2053
sL4324081L
(F16.0
L4324091L
tp2054
sL4296101L
(F24.0
L4296115L
tp2055
sL4263334L
(F16.0
L4263371L
tp2056
sL4230567L
(F1024.0
L4230589L
tp2057
sL4320680L
(F8192.0
L4320687L
tp2058
sL4282268L
(F956.2936616507068
L4282283L
tp2059
sL4337066L
(F878.8238902794661
L4337088L
tp2060
sL4312493L
(F72.81777777777778
L4312508L
tp2061
sL4320687L
(F4096.0
L4320692L
tp2062
sL4216777L
(F1.0
L4216783L
tp2063
sL4308747L
(F36.0
L4308766L
tp2064
sL4328883L
(F8.0
L4328921L
tp2065
sL4320692L
(F4096.0
L4320704L
tp2066
sL4222393L
(F1.0
L4222395L
tp2067
sL4222395L
(F1.0
L4222676L
tp2068
sL4279740L
(F1.0
L4279797L
tp2069
sL4230589L
(F1024.0
L4230609L
tp2070
sL4230389L
(F512.0
L4230434L
tp2071
sL4312512L
(F36.40888888888889
L4312519L
tp2072
sL4220832L
(F32.0
L4220846L
tp2073
sL4246978L
(F16.0
L4246992L
tp2074
sL4312519L
(F36.40888888888889
L4312557L
tp2075
sL4296136L
(F24.0
L4296154L
tp2076
sL4227660L
(F2021161080.4705882
L4227667L
tp2077
sL4263371L
(F32.0
L4263409L
tp2078
sL4226862L
(F42107522.50980392
L4226871L
tp2079
sL4320717L
(F16384.0
L4320724L
tp2080
sL4334157L
(F42.666666666666664
L4334172L
tp2081
sL4246992L
(F5.333333333333333
L4246997L
tp2082
sL4230609L
(F512.0
L4230617L
tp2083
sL4320724L
(F16384.0
L4320743L
tp2084
sL4246997L
(F1.0
L4246999L
tp2085
sL4337110L
(F3515.2955611178645
L4337117L
tp2086
sL4246999L
(F1.0
L4247054L
tp2087
sL4230617L
(F1024.0
L4230631L
tp2088
sL4296154L
(F24.0
L4296204L
tp2089
sL4226371L
(F31580641.88235294
L4226378L
tp2090
sL4238812L
(F268435456.0
L4238885L
tp2091
sL4337117L
(F3515.2955611178645
L4337124L
tp2092
sL4217041L
(F1.0
L4217043L
tp2093
sL4337124L
(F1757.6477805589323
L4337131L
tp2094
sL4320743L
(F1024.0
L4320758L
tp2095
sL4328937L
(F16.0
L4329008L
tp2096
sL4337131L
(F878.8238902794661
L4337138L
tp2097
sL4312557L
(F1.0
L4312559L
tp2098
sL4255215L
(F1.0
L4255266L
tp2099
sL4271600L
(F1.3333333333333333
L4271605L
tp2100
sL4263409L
(F64.0
L4263447L
tp2101
sL4337138L
(F439.41194513973306
L4337143L
tp2102
sL4289107L
(F2.0
L4289121L
tp2103
sL4271605L
(F1.0
L4271620L
tp2104
sL4320758L
(F2048.0
L4320769L
tp2105
sL4337143L
(F219.70597256986653
L4337169L
tp2106
sL4320511L
(F256.0
L4320522L
tp2107
sL4208976L
(F1.0
L4209007L
tp2108
sL4306264L
(F2.2857142857142856
L4306266L
tp2109
sL4320769L
(F4096.0
L4320780L
tp2110
sL4335531L
(F85.33333333333333
L4335542L
tp2111
sL4271620L
(F2.0
L4271625L
tp2112
sL4312584L
(F2.0
L4312621L
tp2113
sL4271625L
(F2.0
L4271627L
tp2114
sL4271627L
(F1.0
L4271671L
tp2115
sL4296204L
(F24.0
L4296238L
tp2116
sL4322071L
(F6.320987654320987
L4322081L
tp2117
sL4247054L
(F2.0
L4247076L
tp2118
sL4217162L
(F1.0
L4217164L
tp2119
sL4337169L
(F439.41194513973306
L4337191L
tp2120
sL4324611L
(F71582788.26666667
L4324682L
tp2121
sL4294535L
(F2.0
L4294542L
tp2122
sL4286382L
(F128.0
L4286437L
tp2123
sL4263447L
(F128.0
L4263485L
tp2124
sL4218605L
(F1.0
L4218607L
tp2125
sL4320795L
(F8192.0
L4320806L
tp2126
sL4230685L
(F4096.0
L4230692L
tp2127
sL4255266L
(F1.0
L4255321L
tp2128
sL4230692L
(F2048.0
L4230749L
tp2129
sL4238885L
(F536870912.0
L4238892L
tp2130
sL4320806L
(F16384.0
L4320821L
tp2131
sL4278193L
(F2.6666666666666665
L4278256L
tp2132
sL4304424L
(F4.0
L4304429L
tp2133
sL4334172L
(F85.33333333333333
L4334197L
tp2134
sL4238892L
(F536870912.0
L4238947L
tp2135
sL4304429L
(F8.0
L4304434L
tp2136
sL4296238L
(F24.0
L4296272L
tp2137
sL4247088L
(F36.0
L4247134L
tp2138
sL4279857L
(F1.0
L4279905L
tp2139
sL4329010L
(F32.0
L4329020L
tp2140
sL4320821L
(F32768.0
L4320836L
tp2141
sL4271671L
(F2.0
L4271701L
tp2142
sL4266915L
(F32.0
L4266920L
tp2143
sL4284314L
(F2.0
L4284320L
tp2144
sL4288060L
(F8.0
L4288136L
tp2145
sL4263485L
(F17.066666666666666
L4263492L
tp2146
sL4244890L
(F55848209664.8127
L4244945L
tp2147
sL4304448L
(F8.0
L4304473L
tp2148
sL4320295L
(F128.0
L4320310L
tp2149
sL4312642L
(F4.0
L4312666L
tp2150
sL4312813L
(F3.282051282051282
L4312852L
tp2151
sL4263492L
(F256.0
L4263503L
tp2152
sL4215393L
(F40.0
L4215448L
tp2153
sL4226316L
(F7895160.470588235
L4226356L
tp2154
sL4329036L
(F32.0
L4329119L
tp2155
sL4263503L
(F512.0
L4263515L
tp2156
sL4296272L
(F3.4285714285714284
L4296273L
tp2157
sL4296273L
(F2.0869565217391304
L4296298L
tp2158
sL4214355L
(F2.0
L4214360L
tp2159
sL4269643L
(F1.923076923076923
L4269668L
tp2160
sL4271701L
(F4.0
L4271711L
tp2161
sL4306873L
(F1.0
L4306916L
tp2162
sL4214360L
(F2.0
L4214362L
tp2163
sL4255321L
(F2.0
L4255343L
tp2164
sL4214362L
(F1.0
L4214401L
tp2165
sL4263515L
(F1024.0
L4263527L
tp2166
sL4230749L
(F2048.0
L4230803L
tp2167
sL4247134L
(F36.0
L4247170L
tp2168
sL4271711L
(F4.0
L4271725L
tp2169
sL4337249L
(F1757.6477805589323
L4337256L
tp2170
sL4238947L
(F134217728.0
L4238975L
tp2171
sL4320870L
(F65536.0
L4320889L
tp2172
sL4263527L
(F292.57142857142856
L4263534L
tp2173
sL4337256L
(F878.8238902794661
L4337263L
tp2174
sL4224956L
(F8192.0
L4225002L
tp2175
sL4296298L
(F1.0
L4296475L
tp2176
sL4304492L
(F8.0
L4304506L
tp2177
sL4271725L
(F8.0
L4271739L
tp2178
sL4263534L
(F2048.0
L4263547L
tp2179
sL4255343L
(F4.0
L4255355L
tp2180
sL4334565L
(F227.55555555555554
L4334587L
tp2181
sL4312692L
(F3.2
L4312729L
tp2182
sL4216766L
(F2.0
L4216777L
tp2183
sL4320889L
(F2048.0
L4320909L
tp2184
sL4304506L
(F16.0
L4304552L
tp2185
sL4255355L
(F36.0
L4255505L
tp2186
sL4263549L
(F1.0
L4263587L
tp2187
sL4271381L
(F1.0
L4271425L
tp2188
sL4214401L
(F2.0
L4214446L
tp2189
sL4247170L
(F36.0
L4247232L
tp2190
sL4271751L
(F4.0
L4271846L
tp2191
sL4288136L
(F4.0
L4288163L
tp2192
sL4238988L
(F536870912.0
L4239003L
tp2193
sL4320909L
(F4096.0
L4320916L
tp2194
sL4230803L
(F4096.0
L4230810L
tp2195
sL4320916L
(F4096.0
L4320931L
tp2196
sL4295961L
(F1.0
L4295980L
tp2197
sL4213523L
(F2.0
L4213594L
tp2198
sL4312729L
(F6.4
L4312739L
tp2199
sL4230810L
(F2048.0
L4230865L
tp2200
sL4239003L
(F1073741824.0
L4239100L
tp2201
sL4267290L
(F341.3333333333333
L4267307L
tp2202
sL4279966L
(F1.0
L4279968L
tp2203
sL4329119L
(F64.0
L4329121L
tp2204
sL4279968L
(F1.0
L4280029L
tp2205
sL4329121L
(F64.0
L4329131L
tp2206
sL4337314L
(F164.7794794273999
L4337324L
tp2207
sL4320931L
(F8192.0
L4320953L
tp2208
sL4304552L
(F8.0
L4304566L
tp2209
sL4329131L
(F64.0
L4329147L
tp2210
sL4337324L
(F109.85298628493327
L4337350L
tp2211
sL4214446L
(F4.0
L4214458L
tp2212
sL4263599L
(F4.0
L4263618L
tp2213
sL4252275L
(F80.0
L4252280L
tp2214
sL4218142L
(F1.0
L4218157L
tp2215
sL4304566L
(F16.0
L4304568L
tp2216
sL4294601L
(F5.333333333333333
L4294608L
tp2217
sL4304568L
(F2.0
L4304612L
tp2218
sL4320953L
(F16384.0
L4320975L
tp2219
sL4214458L
(F32.0
L4214490L
tp2220
sL4329147L
(F64.0
L4329178L
tp2221
sL4312766L
(F4.923076923076923
L4312813L
tp2222
sL4334197L
(F170.66666666666666
L4334217L
tp2223
sL4247232L
(F36.0
L4247274L
tp2224
sL4279584L
(F1.0
L4279616L
tp2225
sL4263618L
(F1.1428571428571428
L4263628L
tp2226
sL4337350L
(F341.3333333333333
L4337356L
tp2227
sL4338295L
(F512.0
L4338341L
tp2228
sL4263628L
(F8.0
L4263640L
tp2229
sL4320975L
(F32768.0
L4320997L
tp2230
sL4208833L
(F2.0
L4208854L
tp2231
sL4230865L
(F128.0
L4230874L
tp2232
sL4316451L
(F1.0
L4316453L
tp2233
sL4222676L
(F2.0
L4222686L
tp2234
sL4208615L
(F1.0
L4208618L
tp2235
sL4263640L
(F16.0
L4263734L
tp2236
sL4306544L
(F2.0
L4306554L
tp2237
sL4214490L
(F32.0
L4214522L
tp2238
sL4337372L
(F1365.3333333333333
L4337382L
tp2239
sL4309626L
(F113.77777777777777
L4309636L
tp2240
sL4222686L
(F2.0
L4222722L
tp2241
sL4329185L
(F128.0
L4329190L
tp2242
sL4230883L
(F512.0
L4230898L
tp2243
sL4304612L
(F4.0
L4304688L
tp2244
sL4320997L
(F65536.0
L4321004L
tp2245
sL4271846L
(F1.3333333333333333
L4271851L
tp2246
sL4274129L
(F131072.0
L4274140L
tp2247
sL4327276L
(F256.0
L4327291L
tp2248
sL4247274L
(F72.0
L4247405L
tp2249
sL4271851L
(F1.0
L4271866L
tp2250
sL4321004L
(F65536.0
L4321011L
tp2251
sL4302802L
(F2.0
L4302827L
tp2252
sL4235901L
(F16777216.0
L4235914L
tp2253
sL4337393L
(F2730.6666666666665
L4337404L
tp2254
sL4230898L
(F1024.0
L4230905L
tp2255
sL4321011L
(F32768.0
L4321018L
tp2256
sL4230905L
(F512.0
L4230955L
tp2257
sL4321018L
(F16384.0
L4321025L
tp2258
sL4239100L
(F2147483648.0
L4239174L
tp2259
sL4271871L
(F2.0
L4271873L
tp2260
sL4271873L
(F1.0
L4271925L
tp2261
sL4222722L
(F4.0
L4222732L
tp2262
sL4337411L
(F5461.333333333333
L4337416L
tp2263
sL4321030L
(F8192.0
L4321042L
tp2264
sL4337416L
(F2730.6666666666665
L4337419L
tp2265
sL4288266L
(F1.0
L4288319L
tp2266
sL4337419L
(F682.6666666666666
L4337425L
tp2267
sL4222732L
(F4.0
L4222819L
tp2268
sL4307288L
(F1.0666666666666667
L4307290L
tp2269
sL4255505L
(F36.0
L4255520L
tp2270
sL4321042L
(F16384.0
L4321049L
tp2271
sL4239987L
(F1073741824.0
L4240000L
tp2272
sL4312852L
(F9.846153846153847
L4312867L
tp2273
sL4319094L
(F8.0
L4319109L
tp2274
sL4212697L
(F32.0
L4212707L
tp2275
sL4309515L
(F10.666666666666666
L4309528L
tp2276
sL4296475L
(F2.0
L4296500L
tp2277
sL4337436L
(F2730.6666666666665
L4337451L
tp2278
sL4321055L
(F32768.0
L4321062L
tp2279
sL4255520L
(F72.0
L4255527L
tp2280
sL4280097L
(F1.0
L4280275L
tp2281
sL4329251L
(F256.0
L4329253L
tp2282
sL4329253L
(F128.0
L4329263L
tp2283
sL4321062L
(F32768.0
L4321078L
tp2284
sL4255527L
(F72.0
L4255532L
tp2285
sL4275995L
(F4.0
L4276020L
tp2286
sL4331484L
(F42853.68071519796
L4331535L
tp2287
sL4337451L
(F5461.333333333333
L4337475L
tp2288
sL4255532L
(F36.0
L4255654L
tp2289
sL4312878L
(F4.923076923076923
L4312916L
tp2290
sL4329263L
(F256.0
L4329279L
tp2291
sL4304688L
(F1.2307692307692308
L4304691L
tp2292
sL4264584L
(F32.0
L4264594L
tp2293
sL4304691L
(F1.0
L4304727L
tp2294
sL4230964L
(F256.0
L4230978L
tp2295
sL4271925L
(F1.0
L4271964L
tp2296
sL4263734L
(F8.0
L4263746L
tp2297
sL4334217L
(F170.66666666666666
L4334232L
tp2298
sL4289162L
(F1.0
L4289181L
tp2299
sL4296510L
(F4.0
L4296520L
tp2300
sL4288319L
(F2.0
L4288337L
tp2301
sL4230978L
(F512.0
L4230993L
tp2302
sL4337475L
(F10922.666666666666
L4337491L
tp2303
sL4321092L
(F16384.0
L4321107L
tp2304
sL4218166L
(F2.0
L4218171L
tp2305
sL4239174L
(F4294967296.0
L4239181L
tp2306
sL4296520L
(F2.6666666666666665
L4296536L
tp2307
sL4266176L
(F1.0
L4266211L
tp2308
sL4239181L
(F4294967296.0
L4239241L
tp2309
sL4267540L
(F341.3333333333333
L4267591L
tp2310
sL4297357L
(F34.13333333333333
L4297360L
tp2311
sL4214609L
(F32.0
L4214638L
tp2312
sL4335587L
(F341.3333333333333
L4335606L
tp2313
sL4312916L
(F1.0
L4312918L
tp2314
sL4312918L
(F1.0
L4312943L
tp2315
sL4304727L
(F2.0
L4304734L
tp2316
sL4231000L
(F512.0
L4231050L
tp2317
sL4301455L
(F2.0
L4301461L
tp2318
sL4271964L
(F2.0
L4271976L
tp2319
sL4337501L
(F21845.333333333332
L4337515L
tp2320
sL4304734L
(F2.0
L4304763L
tp2321
sL4321122L
(F65536.0
L4321137L
tp2322
sL4222819L
(F8.0
L4222834L
tp2323
sL4329317L
(F512.0
L4329322L
tp2324
sL4263783L
(F32.0
L4263790L
tp2325
sL4271976L
(F12.0
L4272000L
tp2326
sL4255036L
(F4.0
L4255048L
tp2327
sL4329322L
(F512.0
L4329373L
tp2328
sL4337515L
(F1365.3333333333333
L4337540L
tp2329
sL4247405L
(F36.0
L4247419L
tp2330
sL4214638L
(F32.0
L4214667L
tp2331
sL4312943L
(F2.0
L4312957L
tp2332
sL4288368L
(F4.0
L4288397L
tp2333
sL4321137L
(F131072.0
L4321148L
tp2334
sL4222834L
(F16.0
L4222841L
tp2335
sL4226982L
(F168430090.03921568
L4226991L
tp2336
sL4314661L
(F1.0
L4314700L
tp2337
sL4222841L
(F8.0
L4222891L
tp2338
sL4312005L
(F6.4
L4312042L
tp2339
sL4247419L
(F72.0
L4247439L
tp2340
sL4321148L
(F262144.0
L4321159L
tp2341
sL4208618L
(F1.0
L4208659L
tp2342
sL4301461L
(F4.0
L4301504L
tp2343
sL4272000L
(F12.0
L4272024L
tp2344
sL4302827L
(F2.0
L4302837L
tp2345
sL4337540L
(F2730.6666666666665
L4337556L
tp2346
sL4321159L
(F524288.0
L4321174L
tp2347
sL4296584L
(F6.4
L4296613L
tp2348
sL4239241L
(F1073741824.0
L4239256L
tp2349
sL4231050L
(F128.0
L4231059L
tp2350
sL4312971L
(F8.0
L4312978L
tp2351
sL4214668L
(F1.0
L4214674L
tp2352
sL4288397L
(F2.0
L4288463L
tp2353
sL4209985L
(F1.3333333333333333
L4209990L
tp2354
sL4247439L
(F36.0
L4247459L
tp2355
sL4282818L
(F7.529411764705882
L4282848L
tp2356
sL4334232L
(F341.3333333333333
L4334257L
tp2357
sL4214674L
(F1.0
L4214689L
tp2358
sL4231059L
(F256.0
L4231068L
tp2359
sL4337556L
(F2730.6666666666665
L4337618L
tp2360
sL4321174L
(F349525.3333333333
L4321185L
tp2361
sL4312983L
(F2.0
L4313004L
tp2362
sL4239256L
(F2147483648.0
L4239263L
tp2363
sL4231068L
(F512.0
L4231082L
tp2364
sL4329373L
(F512.0
L4329383L
tp2365
sL4324827L
(F572662306.1333333
L4324843L
tp2366
sL4239263L
(F2147483648.0
L4239318L
tp2367
sL4321185L
(F699050.6666666666
L4321200L
tp2368
sL4244123L
(F3660068268593165.0
L4244185L
tp2369
sL4327555L
(F128.0
L4327594L
tp2370
sL4214086L
(F2.0
L4214140L
tp2371
sL4255654L
(F36.0
L4255765L
tp2372
sL4329383L
(F8.0
L4329398L
tp2373
sL4231082L
(F1024.0
L4231097L
tp2374
sL4222891L
(F8.0
L4222900L
tp2375
sL4313004L
(F4.0
L4313014L
tp2376
sL4263853L
(F16.0
L4263858L
tp2377
sL4214703L
(F1.0
L4214705L
tp2378
sL4272048L
(F12.0
L4272072L
tp2379
sL4214705L
(F1.0
L4214720L
tp2380
sL4263858L
(F1.0
L4263873L
tp2381
sL4222900L
(F16.0
L4222915L
tp2382
sL4313014L
(F1.3333333333333333
L4313025L
tp2383
sL4336969L
(F2636.4716708383985
L4336976L
tp2384
sL4226055L
(F16777216.0
L4226097L
tp2385
sL4231097L
(F2048.0
L4231104L
tp2386
sL4296636L
(F6.4
L4296646L
tp2387
sL4275530L
(F2.0
L4275555L
tp2388
sL4302837L
(F4.0
L4302862L
tp2389
sL4231104L
(F1024.0
L4231154L
tp2390
sL4313025L
(F2.6666666666666665
L4313133L
tp2391
sL4222915L
(F32.0
L4222922L
tp2392
sL4335606L
(F682.6666666666666
L4335625L
tp2393
sL4296646L
(F12.8
L4296677L
tp2394
sL4245368L
(F204.8
L4245383L
tp2395
sL4263880L
(F1.0
L4263903L
tp2396
sL4218188L
(F2.0
L4218207L
tp2397
sL4222922L
(F16.0
L4222972L
tp2398
sL4247501L
(F72.0
L4247632L
tp2399
sL4288463L
(F1.0
L4288465L
tp2400
sL4329424L
(F32.0
L4329435L
tp2401
sL4214737L
(F1.0
L4214761L
tp2402
sL4337618L
(F5461.333333333333
L4337625L
tp2403
sL4280275L
(F1.0
L4280408L
tp2404
sL4239318L
(F536870912.0
L4239391L
tp2405
sL4323321L
(F4.266666666666667
L4323327L
tp2406
sL4218221L
(F1.0
L4218223L
tp2407
sL4321241L
(F1597830.0952380951
L4321256L
tp2408
sL4246863L
(F1.0
L4246878L
tp2409
sL4274170L
(F37449.142857142855
L4274182L
tp2410
sL4263903L
(F2.0
L4263915L
tp2411
sL4272096L
(F1.7142857142857142
L4272101L
tp2412
sL4272101L
(F1.0
L4272103L
tp2413
sL4272103L
(F1.0
L4272531L
tp2414
sL4321256L
(F456522.8843537415
L4321267L
tp2415
sL4319228L
(F8.0
L4319245L
tp2416
sL4263915L
(F4.0
L4263934L
tp2417
sL4329454L
(F64.0
L4329465L
tp2418
sL4304881L
(F2.0
L4304909L
tp2419
sL4231154L
(F128.0
L4231167L
tp2420
sL4321267L
(F26989.287753870904
L4321274L
tp2421
sL4329465L
(F128.0
L4329480L
tp2422
sL4321274L
(F913045.768707483
L4321279L
tp2423
sL4275156L
(F1.0
L4275238L
tp2424
sL4222972L
(F16.0
L4222983L
tp2425
sL4230993L
(F1024.0
L4231000L
tp2426
sL4337663L
(F10.666666666666666
L4337668L
tp2427
sL4326467L
(F780.1904761904761
L4326474L
tp2428
sL4337668L
(F1.0949499012288817
L4337670L
tp2429
sL4324694L
(F143165576.53333333
L4324710L
tp2430
sL4337670L
(F1.0
L4337711L
tp2431
sL4222983L
(F32.0
L4223033L
tp2432
sL4263944L
(F8.0
L4263956L
tp2433
sL4296715L
(F8.533333333333333
L4296735L
tp2434
sL4304909L
(F4.0
L4304919L
tp2435
sL4321296L
(F2.0
L4321313L
tp2436
sL4231186L
(F512.0
L4231240L
tp2437
sL4329491L
(F256.0
L4329506L
tp2438
sL4263956L
(F16.0
L4263989L
tp2439
sL4255765L
(F36.0
L4255853L
tp2440
sL4304919L
(F1.3333333333333333
L4304963L
tp2441
sL4214814L
(F40.0
L4214841L
tp2442
sL4296735L
(F17.066666666666666
L4296758L
tp2443
sL4321313L
(F4.0
L4321388L
tp2444
sL4329506L
(F256.0
L4329517L
tp2445
sL4250089L
(F2.0
L4250091L
tp2446
sL4294903L
(F16.0
L4294906L
tp2447
sL4278278L
(F10.666666666666666
L4278295L
tp2448
sL4239398L
(F1073741824.0
L4239453L
tp2449
sL4300124L
(F2.0
L4300134L
tp2450
sL4329517L
(F512.0
L4329532L
tp2451
sL4337711L
(F1.0
L4337730L
tp2452
sL4288562L
(F1.0
L4288589L
tp2453
sL4263989L
(F8.0
L4264001L
tp2454
sL4296758L
(F34.13333333333333
L4296787L
tp2455
sL4254727L
(F1.0
L4254742L
tp2456
sL4223033L
(F64.0
L4223040L
tp2457
sL4278157L
(F2.6666666666666665
L4278168L
tp2458
sL4218207L
(F4.0
L4218216L
tp2459
sL4329532L
(F1024.0
L4329547L
tp2460
sL4313149L
(F5.333333333333333
L4313159L
tp2461
sL4223040L
(F32.0
L4223090L
tp2462
sL4264001L
(F16.0
L4264095L
tp2463
sL4337730L
(F2.0
L4337755L
tp2464
sL4304963L
(F2.6666666666666665
L4304987L
tp2465
sL4256438L
(F144.0
L4256460L
tp2466
sL4214854L
(F80.0
L4214904L
tp2467
sL4313159L
(F5.333333333333333
L4313196L
tp2468
sL4231240L
(F1024.0
L4231247L
tp2469
sL4329547L
(F2048.0
L4329566L
tp2470
sL4288589L
(F2.0
L4288614L
tp2471
sL4231247L
(F512.0
L4231302L
tp2472
sL4247632L
(F36.0
L4247646L
tp2473
sL4246883L
(F2.0
L4246885L
tp2474
sL4280408L
(F2.0
L4280413L
tp2475
sL4217709L
(F2.0
L4217720L
tp2476
sL4331535L
(F128561.04214559386
L4331545L
tp2477
sL4239453L
(F268435456.0
L4239481L
tp2478
sL4247646L
(F72.0
L4247666L
tp2479
sL4246885L
(F1.0
L4246913L
tp2480
sL4296802L
(F17.066666666666666
L4296810L
tp2481
sL4300134L
(F4.0
L4300145L
tp2482
sL4288614L
(F2.0
L4288627L
tp2483
sL4337768L
(F4.0
L4337793L
tp2484
sL4296810L
(F34.13333333333333
L4296829L
tp2485
sL4320615L
(F8192.0
L4320637L
tp2486
sL4300829L
(F2.0
L4300854L
tp2487
sL4255853L
(F72.0
L4255960L
tp2488
sL4309693L
(F59.36231884057971
L4309703L
tp2489
sL4321394L
(F16.0
L4321400L
tp2490
sL4288627L
(F4.0
L4288652L
tp2491
sL4313206L
(F10.666666666666666
L4313233L
tp2492
sL4312559L
(F1.0
L4312584L
tp2493
sL4321400L
(F32.0
L4321406L
tp2494
sL4239481L
(F536870912.0
L4239494L
tp2495
sL4320197L
(F4096.0
L4320212L
tp2496
sL4279658L
(F2.0
L4279663L
tp2497
sL4321406L
(F4.266666666666667
L4321434L
tp2498
sL4297829L
(F16.0
L4297867L
tp2499
sL4329600L
(F8192.0
L4329619L
tp2500
sL4301504L
(F2.6666666666666665
L4301529L
tp2501
sL4336837L
(F329.5589588547998
L4336875L
tp2502
sL4223107L
(F32.0
L4223124L
tp2503
sL4239494L
(F1073741824.0
L4239509L
tp2504
sL4214919L
(F40.0
L4214929L
tp2505
sL4337804L
(F8.0
L4337829L
tp2506
sL4231311L
(F256.0
L4231326L
tp2507
sL4313233L
(F21.333333333333332
L4313280L
tp2508
sL4305042L
(F5.333333333333333
L4305047L
tp2509
sL4329619L
(F16.0
L4329633L
tp2510
sL4223124L
(F64.0
L4223139L
tp2511
sL4239509L
(F2147483648.0
L4239606L
tp2512
sL4305047L
(F10.666666666666666
L4305052L
tp2513
sL4247705L
(F72.0
L4247763L
tp2514
sL4321434L
(F4.0
L4321440L
tp2515
sL4214939L
(F40.0
L4214967L
tp2516
sL4305052L
(F21.333333333333332
L4305077L
tp2517
sL4231326L
(F512.0
L4231333L
tp2518
sL4264095L
(F8.0
L4264107L
tp2519
sL4321440L
(F8.0
L4321454L
tp2520
sL4329633L
(F32.0
L4329648L
tp2521
sL4223139L
(F128.0
L4223146L
tp2522
sL4296869L
(F136.53333333333333
L4296885L
tp2523
sL4300145L
(F2.0
L4300181L
tp2524
sL4280490L
(F2.0
L4280526L
tp2525
sL4264107L
(F16.0
L4264140L
tp2526
sL4288684L
(F8.0
L4288754L
tp2527
sL4321454L
(F4.0
L4321460L
tp2528
sL4329648L
(F32.0
L4329659L
tp2529
sL4274939L
(F32768.0
L4274970L
tp2530
sL4321460L
(F8.0
L4321502L
tp2531
sL4305077L
(F5.333333333333333
L4305102L
tp2532
sL4214967L
(F80.0
L4215010L
tp2533
sL4329659L
(F64.0
L4329674L
tp2534
sL4313280L
(F14.222222222222221
L4313319L
tp2535
sL4246188L
(F4.0
L4246190L
tp2536
sL4256460L
(F36.0
L4256474L
tp2537
sL4329674L
(F128.0
L4329693L
tp2538
sL4271479L
(F8.0
L4271493L
tp2539
sL4264140L
(F8.0
L4264156L
tp2540
sL4296910L
(F273.06666666666666
L4296968L
tp2541
sL6477364L
(F1.0
L6477368L
tp2542
sL4251000L
(F16.0
L4251050L
tp2543
sL4247763L
(F36.0
L4247773L
tp2544
sL4255960L
(F144.0
L4256021L
tp2545
sL4337882L
(F16.0
L4337892L
tp2546
sL4264156L
(F16.0
L4264223L
tp2547
sL4329693L
(F64.0
L4329708L
tp2548
sL4321502L
(F4.0
L4321508L
tp2549
sL4291831L
(F2.0
L4291856L
tp2550
sL4215010L
(F40.0
L4215016L
tp2551
sL4337892L
(F16.0
L4337908L
tp2552
sL4223090L
(F16.0
L4223107L
tp2553
sL4284027L
(F4.0
L4284034L
tp2554
sL4313319L
(F42.666666666666664
L4313334L
tp2555
sL4215016L
(F40.0
L4215052L
tp2556
sL4222332L
(F24.0
L4222339L
tp2557
sL4321514L
(F5.333333333333333
L4321570L
tp2558
sL4233255L
(F131072.0
L4233268L
tp2559
sL4329708L
(F128.0
L4329723L
tp2560
sL4280557L
(F2.0
L4280567L
tp2561
sL4218453L
(F1.0
L4218455L
tp2562
sL4320637L
(F16384.0
L4320659L
tp2563
sL4247793L
(F36.0
L4247922L
tp2564
sL4288754L
(F1.0
L4288777L
tp2565
sL4337908L
(F32.0
L4337972L
tp2566
sL4313334L
(F10.666666666666666
L4313338L
tp2567
sL4280567L
(F2.0
L4280618L
tp2568
sL4313338L
(F21.333333333333332
L4313345L
tp2569
sL4329723L
(F256.0
L4329734L
tp2570
sL4305152L
(F1.0491803278688525
L4305154L
tp2571
sL4313345L
(F21.333333333333332
L4313383L
tp2572
sL4328385L
(F1024.0
L4328395L
tp2573
sL4319275L
(F64.0
L4319290L
tp2574
sL4329734L
(F512.0
L4329749L
tp2575
sL4296065L
(F48.0
L4296101L
tp2576
sL4296968L
(F546.1333333333333
L4296981L
tp2577
sL4335660L
(F170.66666666666666
L4335672L
tp2578
sL4215052L
(F40.0
L4215059L
tp2579
sL4327469L
(F512.0
L4327494L
tp2580
sL4248733L
(F4.0
L4248743L
tp2581
sL4283922L
(F1.0
L4283991L
tp2582
sL4215059L
(F40.0
L4215066L
tp2583
sL4296981L
(F1092.2666666666667
L4296994L
tp2584
sL4334297L
(F682.6666666666666
L4334312L
tp2585
sL4215066L
(F1.2903225806451613
L4215071L
tp2586
sL4223260L
(F42.666666666666664
L4223277L
tp2587
sL4317914L
(F1.0
L4317990L
tp2588
sL4264223L
(F32.0
L4264261L
tp2589
sL4329760L
(F1024.0
L4329775L
tp2590
sL4296994L
(F2184.5333333333333
L4297029L
tp2591
sL4246918L
(F4.0
L4246922L
tp2592
sL4215078L
(F1.0
L4215097L
tp2593
sL4313383L
(F1.0
L4313385L
tp2594
sL4321576L
(F8.0
L4321604L
tp2595
sL4313385L
(F1.0
L4313410L
tp2596
sL4280618L
(F4.0
L4280628L
tp2597
sL4256043L
(F36.0
L4256057L
tp2598
sL4223277L
(F85.33333333333333
L4223292L
tp2599
sL4329775L
(F2048.0
L4329790L
tp2600
sL4225002L
(F16384.0
L4225009L
tp2601
sL4235095L
(F4194304.0
L4235110L
tp2602
sL4337972L
(F64.0
L4338014L
tp2603
sL4278977L
(F16.0
L4278997L
tp2604
sL4256057L
(F72.0
L4256102L
tp2605
sL4223292L
(F170.66666666666666
L4223299L
tp2606
sL4246922L
(F8.0
L4246924L
tp2607
sL4329790L
(F1024.0
L4329801L
tp2608
sL4239680L
(F8589934592.0
L4239687L
tp2609
sL4268768L
(F100.0
L4268784L
tp2610
sL4313410L
(F2.0
L4313436L
tp2611
sL4332939L
(F48.76190476190476
L4332954L
tp2612
sL4321604L
(F4.0
L4321610L
tp2613
sL4297029L
(F2184.5333333333333
L4297063L
tp2614
sL4239687L
(F8589934592.0
L4239747L
tp2615
sL4215112L
(F4.0
L4215124L
tp2616
sL4329801L
(F2048.0
L4329816L
tp2617
sL4321610L
(F8.0
L4321624L
tp2618
sL4288847L
(F8.0
L4288872L
tp2619
sL4215124L
(F12.0
L4215137L
tp2620
sL4329816L
(F4096.0
L4329831L
tp2621
sL4234514L
(F2097152.0
L4234529L
tp2622
sL4313436L
(F4.0
L4313446L
tp2623
sL4242261L
(F61083979320.888885
L4242268L
tp2624
sL4321630L
(F8.0
L4321644L
tp2625
sL4231519L
(F512.0
L4231534L
tp2626
sL4215137L
(F24.0
L4215155L
tp2627
sL4278331L
(F10.666666666666666
L4278366L
tp2628
sL4269921L
(F400.0
L4269934L
tp2629
sL4256102L
(F36.0
L4256182L
tp2630
sL4329831L
(F2048.0
L4329842L
tp2631
sL4288872L
(F8.0
L4288911L
tp2632
sL4264299L
(F128.0
L4264337L
tp2633
sL4321644L
(F4.0
L4321649L
tp2634
sL4231534L
(F1024.0
L4231541L
tp2635
sL4223344L
(F16.0
L4223363L
tp2636
sL4313457L
(F2.6666666666666665
L4313565L
tp2637
sL4329842L
(F4096.0
L4329857L
tp2638
sL4247923L
(F1.0434782608695652
L4247939L
tp2639
sL4338036L
(F32.0
L4338079L
tp2640
sL4231541L
(F512.0
L4231591L
tp2641
sL4329480L
(F128.0
L4329491L
tp2642
sL4224681L
(F2048.0
L4224692L
tp2643
sL4297086L
(F4369.066666666667
L4297110L
tp2644
sL4324843L
(F572662306.1333333
L4324884L
tp2645
sL4329857L
(F62.77394636015325
L4329891L
tp2646
sL4239747L
(F2147483648.0
L4239762L
tp2647
sL4215173L
(F3.0
L4215176L
tp2648
sL4233281L
(F524288.0
L4233292L
tp2649
sL4247944L
(F2.0869565217391304
L4247954L
tp2650
sL4215177L
(F2.0000000000000004
L4215189L
tp2651
sL4321570L
(F4.0
L4321576L
tp2652
sL4316294L
(F1.1428571428571428
L4316312L
tp2653
sL4288911L
(F1.0
L4288938L
tp2654
sL4264337L
(F256.0
L4264375L
tp2655
sL4223378L
(F64.0
L4223385L
tp2656
sL4272531L
(F2.0
L4272567L
tp2657
sL4215189L
(F1.0
L4215192L
tp2658
sL4297110L
(F34.13333333333333
L4297130L
tp2659
sL4230553L
(F512.0
L4230567L
tp2660
sL4215192L
(F1.0
L4215253L
tp2661
sL4239769L
(F4294967296.0
L4239824L
tp2662
sL4326387L
(F195.04761904761904
L4326409L
tp2663
sL4338079L
(F64.0
L4338101L
tp2664
sL4329891L
(F125.5478927203065
L4329929L
tp2665
sL4231591L
(F512.0
L4231633L
tp2666
sL4297130L
(F13.653333333333334
L4297351L
tp2667
sL4338101L
(F128.0
L4338117L
tp2668
sL4256182L
(F36.0
L4256270L
tp2669
sL4221001L
(F512.0
L4221045L
tp2670
sL4222367L
(F24.0
L4222374L
tp2671
sL4241482L
(F17179869184.0
L4241497L
tp2672
sL4264382L
(F512.0
L4264490L
tp2673
sL4317440L
(F42.666666666666664
L4317451L
tp2674
sL4242848L
(F111696419329.6254
L4242863L
tp2675
sL4302923L
(F5.333333333333333
L4302949L
tp2676
sL4338117L
(F256.0
L4338133L
tp2677
sL4223430L
(F16.0
L4223493L
tp2678
sL4320673L
(F16384.0
L4320680L
tp2679
sL4329929L
(F62.77394636015325
L4329937L
tp2680
sL4280778L
(F8.0
L4280806L
tp2681
sL4320481L
(F65536.0
L4320496L
tp2682
sL4218274L
(F1.0
L4218303L
tp2683
sL4272590L
(F2.0
L4272600L
tp2684
sL4288976L
(F4.0
L4289001L
tp2685
sL4329937L
(F125.5478927203065
L4329976L
tp2686
sL4215253L
(F2.0
L4215275L
tp2687
sL4305366L
(F2.0
L4305368L
tp2688
sL4305368L
(F1.0
L4305734L
tp2689
sL4216911L
(F4.0
L4216923L
tp2690
sL4231644L
(F2048.0
L4231673L
tp2691
sL4313565L
(F2.6666666666666665
L4313581L
tp2692
sL4329178L
(F128.0
L4329185L
tp2693
sL4338149L
(F1024.0
L4338156L
tp2694
sL4280806L
(F16.0
L4280846L
tp2695
sL4289001L
(F4.0
L4289008L
tp2696
sL4234010L
(F524288.0
L4234083L
tp2697
sL4215275L
(F4.0
L4215287L
tp2698
sL4338156L
(F1024.0
L4338163L
tp2699
sL4247922L
(F3.5999999999999996
L4247923L
tp2700
sL4289008L
(F8.0
L4289033L
tp2701
sL4338163L
(F512.0
L4338170L
tp2702
sL4313591L
(F5.333333333333333
L4313611L
tp2703
sL4329976L
(F251.095785440613
L4329992L
tp2704
sL4231673L
(F4096.0
L4231684L
tp2705
sL4338170L
(F256.0
L4338177L
tp2706
sL4335213L
(F4.0
L4335238L
tp2707
sL4288840L
(F4.0
L4288847L
tp2708
sL4338177L
(F128.0
L4338182L
tp2709
sL4231684L
(F4096.0
L4231709L
tp2710
sL4223493L
(F32.0
L4223587L
tp2711
sL4321798L
(F2.0
L4321803L
tp2712
sL4301569L
(F16.0
L4301594L
tp2713
sL4329992L
(F251.095785440613
L4330050L
tp2714
sL4289033L
(F8.0
L4289060L
tp2715
sL4237611L
(F268435456.0
L4237616L
tp2716
sL4321803L
(F4.0
L4321808L
tp2717
sL4280846L
(F32.0
L4280886L
tp2718
sL4222381L
(F24.0
L4222388L
tp2719
sL4321808L
(F8.0
L4321813L
tp2720
sL4338193L
(F256.0
L4338202L
tp2721
sL4243286L
(F223392838659.2508
L4243299L
tp2722
sL4321813L
(F4.0
L4321822L
tp2723
sL4266073L
(F2.0
L4266080L
tp2724
sL4239897L
(F2147483648.0
L4239904L
tp2725
sL4338202L
(F256.0
L4338218L
tp2726
sL4234671L
(F2097152.0
L4234726L
tp2727
sL4231709L
(F4096.0
L4231731L
tp2728
sL4321822L
(F8.0
L4321831L
tp2729
sL4239904L
(F2147483648.0
L4239959L
tp2730
sL4326988L
(F64.0
L4327001L
tp2731
sL4216923L
(F2.0
L4216969L
tp2732
sL4289060L
(F1.0
L4289082L
tp2733
sL4313638L
(F21.333333333333332
L4313685L
tp2734
sL4321831L
(F16.0
L4321836L
tp2735
sL4338218L
(F512.0
L4338227L
tp2736
sL4293383L
(F68.26666666666667
L4293408L
tp2737
sL4321836L
(F8.0
L4321868L
tp2738
sL4328395L
(F512.0
L4328406L
tp2739
sL4264495L
(F1.0
L4264497L
tp2740
sL4264497L
(F1.0
L4264520L
tp2741
sL4296115L
(F48.0
L4296136L
tp2742
sL4286558L
(F256.0
L4286573L
tp2743
sL4280886L
(F9.142857142857142
L4280896L
tp2744
sL4271111L
(F112.0
L4271135L
tp2745
sL4222388L
(F1.8461538461538463
L4222393L
tp2746
sL4289082L
(F2.0
L4289107L
tp2747
sL4319327L
(F1024.0
L4319338L
tp2748
sL4326486L
(F97.52380952380952
L4326532L
tp2749
sL4264714L
(F128.0
L4264733L
tp2750
sL4215358L
(F80.0
L4215365L
tp2751
sL4280896L
(F64.0
L4281017L
tp2752
sL4266080L
(F2.0
L4266174L
tp2753
sL4330050L
(F502.191570881226
L4330052L
tp2754
sL4338243L
(F1024.0
L4338252L
tp2755
sL4330052L
(F502.191570881226
L4330062L
tp2756
sL4215365L
(F80.0
L4215370L
tp2757
sL4218319L
(F1.0
L4218325L
tp2758
sL4264520L
(F2.0
L4264532L
tp2759
sL4215370L
(F40.0
L4215393L
tp2760
sL4338252L
(F1024.0
L4338268L
tp2761
sL4218411L
(F1.0
L4218430L
tp2762
sL4330062L
(F502.191570881226
L4330067L
tp2763
sL4231949L
(F32768.0
L4231964L
tp2764
sL4231760L
(F4096.0
L4231771L
tp2765
sL4330067L
(F1004.383141762452
L4330076L
tp2766
sL4264532L
(F4.0
L4264551L
tp2767
sL4313685L
(F14.222222222222221
L4313724L
tp2768
sL4321878L
(F16.0
L4321888L
tp2769
sL4239959L
(F536870912.0
L4239987L
tp2770
sL4231771L
(F4096.0
L4231796L
tp2771
sL4330076L
(F2008.766283524904
L4330081L
tp2772
sL4302949L
(F10.666666666666666
L4302972L
tp2773
sL4321888L
(F2.0
L4321901L
tp2774
sL4289121L
(F4.0
L4289146L
tp2775
sL4209111L
(F4.0
L4209143L
tp2776
sL4223587L
(F64.0
L4223594L
tp2777
sL4338277L
(F2048.0
L4338282L
tp2778
sL4264551L
(F8.0
L4264563L
tp2779
sL4312508L
(F18.204444444444444
L4312512L
tp2780
sL4330090L
(F8035.065134099616
L4330099L
tp2781
sL4246111L
(F1.0
L4246113L
tp2782
sL4321901L
(F4.0
L4321933L
tp2783
sL4334944L
(F1365.3333333333333
L4335027L
tp2784
sL4264563L
(F1.0666666666666667
L4264573L
tp2785
sL4231796L
(F4096.0
L4231816L
tp2786
sL4251070L
(F2.0
L4251075L
tp2787
sL4335721L
(F281.4213633923779
L4335751L
tp2788
sL4256377L
(F144.0
L4256438L
tp2789
sL4336581L
(F265011.0167677048
L4336591L
tp2790
sL4313724L
(F42.666666666666664
L4313739L
tp2791
sL4264573L
(F16.0
L4264584L
tp2792
sL4240000L
(F2147483648.0
L4240149L
tp2793
sL4337088L
(F1757.6477805589323
L4337110L
tp2794
sL4229227L
(F8084644321.882353
L4229234L
tp2795
sL4334358L
(F170.66666666666666
L4334396L
tp2796
sL4297351L
(F6.4
L4297354L
tp2797
sL4231816L
(F4096.0
L4231917L
tp2798
sL4297354L
(F25.6
L4297357L
tp2799
sL4313739L
(F10.666666666666666
L4313743L
tp2800
sL4321933L
(F8.0
L4321943L
tp2801
sL4330126L
(F16070.130268199233
L4330131L
tp2802
sL4248207L
(F1.0
L4248516L
tp2803
sL4297360L
(F4369.066666666667
L4297361L
tp2804
sL4297361L
(F4.393965806235333
L4297414L
tp2805
sL4264594L
(F32.0
L4264631L
tp2806
sL4330131L
(F1004.383141762452
L4330142L
tp2807
sL4321943L
(F2.6666666666666665
L4321956L
tp2808
sL4215448L
(F40.0
L4215505L
tp2809
sL4313753L
(F21.333333333333332
L4313796L
tp2810
sL4272795L
(F4.0
L4272905L
tp2811
sL4223644L
(F16.0
L4223684L
tp2812
sL4289181L
(F2.0
L4289206L
tp2813
sL4330142L
(F2008.766283524904
L4330149L
tp2814
sL4321956L
(F5.333333333333333
L4321967L
tp2815
sL4338341L
(F256.0
L4338350L
tp2816
sL4284481L
(F2.0
L4284493L
tp2817
sL4294574L
(F8.0
L4294601L
tp2818
sL4320711L
(F8192.0
L4320717L
tp2819
sL4278386L
(F42.666666666666664
L4278397L
tp2820
sL4330158L
(F8035.065134099616
L4330167L
tp2821
sL4321967L
(F10.666666666666666
L4321978L
tp2822
sL4225951L
(F4194304.0
L4225965L
tp2823
sL4267145L
(F21.333333333333332
L4267158L
tp2824
sL4289206L
(F2.0
L4289262L
tp2825
sL4330167L
(F16070.130268199233
L4330176L
tp2826
sL4281017L
(F128.0
L4281027L
tp2827
sL4321978L
(F21.333333333333332
L4321989L
tp2828
sL4286581L
(F256.0
L4286621L
tp2829
sL4330176L
(F32140.260536398466
L4330181L
tp2830
sL4301600L
(F32.0
L4301643L
tp2831
sL4281027L
(F7.529411764705882
L4281123L
tp2832
sL4313796L
(F10.666666666666666
L4313833L
tp2833
sL4330181L
(F4017.532567049808
L4330192L
tp2834
sL4297414L
(F8.787931612470667
L4297469L
tp2835
sL4295292L
(F2.0
L4295294L
tp2836
sL4264652L
(F128.0
L4264671L
tp2837
sL4338381L
(F1024.0
L4338451L
tp2838
sL4330192L
(F8035.065134099616
L4330203L
tp2839
sL4215505L
(F80.0
L4215717L
tp2840
sL4223699L
(F64.0
L4223706L
tp2841
sL4313446L
(F1.3333333333333333
L4313457L
tp2842
sL4256474L
(F72.0
L4256519L
tp2843
sL4330203L
(F16070.130268199233
L4330214L
tp2844
sL4225289L
(F32768.0
L4225304L
tp2845
sL4264671L
(F128.0
L4264703L
tp2846
sL4322016L
(F17.066666666666666
L4322026L
tp2847
sL4330214L
(F32140.260536398466
L4330219L
tp2848
sL4292049L
(F1.0
L4292071L
tp2849
sL4313833L
(F21.333333333333332
L4313843L
tp2850
sL4322026L
(F3.1604938271604937
L4322061L
tp2851
sL4330219L
(F32140.260536398466
L4330244L
tp2852
sL4231917L
(F8192.0
L4231926L
tp2853
sL4289262L
(F4.0
L4289324L
tp2854
sL4313843L
(F21.333333333333332
L4313870L
tp2855
sL4231926L
(F16384.0
L4231949L
tp2856
sL4297469L
(F4.393965806235333
L4297482L
tp2857
sL4264703L
(F64.0
L4264714L
tp2858
sL4319360L
(F8192.0
L4319371L
tp2859
sL4326187L
(F1170.2857142857142
L4326194L
tp2860
sL4330244L
(F64280.52107279693
L4330260L
tp2861
sL4256519L
(F36.0
L4256604L
tp2862
sL4272905L
(F8.0
L4272913L
tp2863
sL4297482L
(F8.787931612470667
L4297547L
tp2864
sL4275671L
(F4.0
L4275693L
tp2865
sL4223756L
(F32.0
L4223766L
tp2866
sL4322061L
(F6.320987654320987
L4322071L
tp2867
sL4313870L
(F42.666666666666664
L4313917L
tp2868
sL4323989L
(F4.0
L4324014L
tp2869
sL4265117L
(F8.0
L4265129L
tp2870
sL4272913L
(F16.0
L4272926L
tp2871
sL4338451L
(F1024.0
L4338587L
tp2872
sL4330260L
(F42853.68071519796
L4330311L
tp2873
sL4240149L
(F4294967296.0
L4240223L
tp2874
sL4223766L
(F64.0
L4223812L
tp2875
sL4328921L
(F16.0
L4328937L
tp2876
sL4231964L
(F65536.0
L4231971L
tp2877
sL4264733L
(F256.0
L4264771L
tp2878
sL4272926L
(F32.0
L4272930L
tp2879
sL4290693L
(F4.0
L4290727L
tp2880
sL4216835L
(F2.0
L4216846L
tp2881
sL4322081L
(F8.0
L4322094L
tp2882
sL4272930L
(F16.0
L4272942L
tp2883
sL4281123L
(F15.058823529411764
L4281236L
tp2884
sL4285233L
(F2.0
L4285256L
tp2885
sL4335751L
(F562.8427267847558
L4335781L
tp2886
sL4289324L
(F4.0
L4289339L
tp2887
sL4322094L
(F16.0
L4322126L
tp2888
sL4241386L
(F17179869184.0
L4241441L
tp2889
sL4208925L
(F8.0
L4208937L
tp2890
sL4272954L
(F8.0
L4272962L
tp2891
sL4289339L
(F2.0
L4289347L
tp2892
sL4313917L
(F28.444444444444443
L4313956L
tp2893
sL4272962L
(F16.0
L4272970L
tp2894
sL4319371L
(F16384.0
L4319382L
tp2895
sL4223812L
(F128.0
L4223819L
tp2896
sL4323171L
(F2.1333333333333333
L4323196L
tp2897
sL4305734L
(F2.0
L4305739L
tp2898
sL4330311L
(F128561.04214559386
L4330321L
tp2899
sL4264776L
(F1.0
L4264778L
tp2900
sL4226973L
(F84215045.01960784
L4226982L
tp2901
sL4264778L
(F1.0
L4264801L
tp2902
sL4305739L
(F2.0
L4305741L
tp2903
sL4305741L
(F1.0
L4306019L
tp2904
sL4322126L
(F32.0
L4322136L
tp2905
sL4272942L
(F32.0
L4272954L
tp2906
sL4330321L
(F8035.065134099616
L4330346L
tp2907
sL4272983L
(F64.0
L4272987L
tp2908
sL4322136L
(F10.666666666666666
L4322149L
tp2909
sL4297562L
(F10.693208239853151
L4297567L
tp2910
sL4272987L
(F32.0
L4272999L
tp2911
sL4256604L
(F72.0
L4256662L
tp2912
sL4297567L
(F10.693208239853151
L4297569L
tp2913
sL4264801L
(F2.0
L4264813L
tp2914
sL4313956L
(F85.33333333333333
L4313971L
tp2915
sL4289381L
(F8.0
L4289443L
tp2916
sL4240230L
(F8589934592.0
L4240290L
tp2917
sL4272999L
(F64.0
L4273011L
tp2918
sL4334396L
(F113.77777777777777
L4334413L
tp2919
sL4330346L
(F16070.130268199233
L4330362L
tp2920
sL4230631L
(F2048.0
L4230685L
tp2921
sL4264813L
(F4.0
L4264832L
tp2922
sL4322160L
(F42.666666666666664
L4322171L
tp2923
sL4309311L
(F5.333333333333333
L4309341L
tp2924
sL4273011L
(F16.0
L4273019L
tp2925
sL4251316L
(F1.0
L4251331L
tp2926
sL4313975L
(F42.666666666666664
L4313982L
tp2927
sL4330362L
(F10713.42017879949
L4330413L
tp2928
sL4273019L
(F32.0
L4273027L
tp2929
sL4223869L
(F32.0
L4223903L
tp2930
sL4313982L
(F42.666666666666664
L4314020L
tp2931
sL4297599L
(F2.0
L4297624L
tp2932
sL4223385L
(F32.0
L4223430L
tp2933
sL4326208L
(F292.57142857142856
L4326215L
tp2934
sL4273027L
(F64.0
L4273040L
tp2935
sL4319382L
(F32768.0
L4319393L
tp2936
sL4264844L
(F1.0666666666666667
L4264854L
tp2937
sL4275693L
(F4.0
L4275705L
tp2938
sL4273040L
(F128.0
L4273044L
tp2939
sL4338227L
(F512.0
L4338243L
tp2940
sL4264771L
(F64.0
L4264776L
tp2941
sL4273044L
(F64.0
L4273056L
tp2942
sL4256662L
(F36.0
L4256672L
tp2943
sL4297624L
(F4.0
L4297767L
tp2944
sL4316655L
(F2.6666666666666665
L4316692L
tp2945
sL4281244L
(F60.23529411764706
L4281257L
tp2946
sL4223903L
(F64.0
L4223918L
tp2947
sL4322208L
(F13.128205128205128
L4322218L
tp2948
sL4264865L
(F32.0
L4264875L
tp2949
sL4240290L
(F2147483648.0
L4240363L
tp2950
sL4270235L
(F2.0
L4270246L
tp2951
sL4314020L
(F1.0
L4314022L
tp2952
sL4215717L
(F40.0
L4215731L
tp2953
sL4314022L
(F1.0
L4314047L
tp2954
sL4281257L
(F120.47058823529412
L4281264L
tp2955
sL4232106L
(F32768.0
L4232161L
tp2956
sL4264875L
(F32.0
L4264912L
tp2957
sL4330413L
(F32140.260536398466
L4330423L
tp2958
sL4223918L
(F128.0
L4223925L
tp2959
sL4273072L
(F64.0
L4273080L
tp2960
sL4277290L
(F1.0
L4277305L
tp2961
sL4321508L
(F8.0
L4321514L
tp2962
sL4215731L
(F80.0
L4215778L
tp2963
sL4338612L
(F64.0
L4338676L
tp2964
sL4223925L
(F64.0
L4223975L
tp2965
sL4330423L
(F16070.130268199233
L4330448L
tp2966
sL4273080L
(F128.0
L4273094L
tp2967
sL4289466L
(F8.0
L4289506L
tp2968
sL4272970L
(F32.0
L4272983L
tp2969
sL4217933L
(F1.0
L4217952L
tp2970
sL4279797L
(F1.0
L4279857L
tp2971
sL4208800L
(F1.0
L4208802L
tp2972
sL4297547L
(F5.3466041199265755
L4297562L
tp2973
sL4248516L
(F1.0
L4248701L
tp2974
sL4273094L
(F64.0
L4273108L
tp2975
sL4319393L
(F65536.0
L4319404L
tp2976
sL4256717L
(F36.0
L4256897L
tp2977
sL4334413L
(F85.33333333333333
L4334424L
tp2978
sL4223594L
(F32.0
L4223644L
tp2979
sL4273108L
(F128.0
L4273114L
tp2980
sL4337793L
(F4.0
L4337804L
tp2981
sL4322263L
(F64.0
L4322270L
tp2982
sL4278436L
(F3.5555555555555554
L4278505L
tp2983
sL4264922L
(F64.0
L4264933L
tp2984
sL4281309L
(F60.23529411764706
L4281317L
tp2985
sL4322270L
(F21.333333333333332
L4322283L
tp2986
sL4330464L
(F21426.84035759898
L4330515L
tp2987
sL4244304L
(F915017067148291.2
L4244377L
tp2988
sL4289506L
(F16.0
L4289561L
tp2989
sL4273124L
(F128.0
L4273132L
tp2990
sL4303014L
(F21.333333333333332
L4303039L
tp2991
sL4223975L
(F128.0
L4224015L
tp2992
sL4240363L
(F4294967296.0
L4240370L
tp2993
sL4247939L
(F2.0869565217391304
L4247944L
tp2994
sL4314094L
(F2.0
L4314110L
tp2995
sL4240370L
(F4294967296.0
L4240425L
tp2996
sL4338676L
(F128.0
L4338747L
tp2997
sL4322294L
(F85.33333333333333
L4322305L
tp2998
sL4264952L
(F128.0
L4264984L
tp2999
sL4281337L
(F120.47058823529412
L4281352L
tp3000
sL4278256L
(F5.333333333333333
L4278278L
tp3001
sL4259696L
(F4.0
L4259706L
tp3002
sL4273148L
(F256.0
L4273160L
tp3003
sL4232189L
(F16384.0
L4232202L
tp3004
sL4314110L
(F4.0
L4314120L
tp3005
sL4208659L
(F2.0
L4208704L
tp3006
sL4322305L
(F56.888888888888886
L4322332L
tp3007
sL4215813L
(F40.0
L4215848L
tp3008
sL4281352L
(F240.94117647058823
L4281367L
tp3009
sL4335788L
(F1125.6854535695115
L4335795L
tp3010
sL4232202L
(F32768.0
L4232234L
tp3011
sL4241229L
(F17179869184.0
L4241244L
tp3012
sL4234754L
(F1048576.0
L4234767L
tp3013
sL4224015L
(F256.0
L4224030L
tp3014
sL4268888L
(F800.0
L4268904L
tp3015
sL4273170L
(F512.0
L4273180L
tp3016
sL4330515L
(F64280.52107279693
L4330525L
tp3017
sL4288802L
(F2.0
L4288815L
tp3018
sL4281367L
(F60.23529411764706
L4281375L
tp3019
sL4207640L
(F2.0
L4207645L
tp3020
sL4289561L
(F16.0
L4289576L
tp3021
sL4273180L
(F1024.0
L4273192L
tp3022
sL4232026L
(F16384.0
L4232099L
tp3023
sL4317773L
(F28.444444444444443
L4317784L
tp3024
sL4281375L
(F120.47058823529412
L4281383L
tp3025
sL4322339L
(F26.256410256410255
L4322346L
tp3026
sL4224037L
(F256.0
L4224103L
tp3027
sL4218157L
(F2.0
L4218166L
tp3028
sL4281383L
(F240.94117647058823
L4281396L
tp3029
sL4289576L
(F8.0
L4289584L
tp3030
sL4240425L
(F1073741824.0
L4240453L
tp3031
sL4322346L
(F5.333333333333333
L4322351L
tp3032
sL4297772L
(F16.0
L4297777L
tp3033
sL4314157L
(F8.0
L4314167L
tp3034
sL4322351L
(F1.0
L4322353L
tp3035
sL4270635L
(F36.000000000000014
L4270675L
tp3036
sL4297777L
(F32.0
L4297791L
tp3037
sL4335795L
(F562.8427267847558
L4335802L
tp3038
sL4281396L
(F481.88235294117646
L4281403L
tp3039
sL4232245L
(F131072.0
L4232252L
tp3040
sL4330550L
(F4017.532567049808
L4330566L
tp3041
sL4314167L
(F2.6666666666666665
L4314194L
tp3042
sL4240223L
(F8589934592.0
L4240230L
tp3043
sL4232252L
(F131072.0
L4232257L
tp3044
sL4273214L
(F4096.0
L4273232L
tp3045
sL4297791L
(F8.0
L4297829L
tp3046
sL4232257L
(F131072.0
L4232297L
tp3047
sL4218379L
(F2.0
L4218404L
tp3048
sL4240453L
(F2147483648.0
L4240466L
tp3049
sL4215097L
(F2.0
L4215112L
tp3050
sL4297569L
(F1.0
L4297599L
tp3051
sL4320780L
(F8192.0
L4320795L
tp3052
sL4281418L
(F481.88235294117646
L4281431L
tp3053
sL4319415L
(F262144.0
L4319426L
tp3054
sL4338764L
(F9.142857142857142
L4338766L
tp3055
sL4273232L
(F8192.0
L4273266L
tp3056
sL4240466L
(F4294967296.0
L4240481L
tp3057
sL4322390L
(F2.0
L4322406L
tp3058
sL4281431L
(F120.47058823529412
L4281445L
tp3059
sL4289624L
(F32.0
L4289704L
tp3060
sL4297078L
(F2184.5333333333333
L4297086L
tp3061
sL4265052L
(F64.0
L4265057L
tp3062
sL4256270L
(F72.0
L4256377L
tp3063
sL4322149L
(F21.333333333333332
L4322160L
tp3064
sL4265057L
(F1.0
L4265059L
tp3065
sL4265059L
(F1.0
L4265086L
tp3066
sL4309862L
(F211.0660225442834
L4309872L
tp3067
sL4322406L
(F4.0
L4322413L
tp3068
sL4224103L
(F256.0
L4224308L
tp3069
sL4232297L
(F262144.0
L4232304L
tp3070
sL4281451L
(F481.88235294117646
L4281464L
tp3071
sL4306029L
(F2.0
L4306049L
tp3072
sL4338747L
(F128.0
L4338764L
tp3073
sL4322413L
(F1.3333333333333333
L4322487L
tp3074
sL4232304L
(F262144.0
L4232364L
tp3075
sL4317503L
(F23.54022988505747
L4317515L
tp3076
sL4273266L
(F4096.0
L4273298L
tp3077
sL4249853L
(F4.0
L4249865L
tp3078
sL4281464L
(F240.94117647058823
L4281502L
tp3079
sL4292116L
(F1.0
L4292138L
tp3080
sL4248701L
(F2.0
L4248733L
tp3081
sL4265086L
(F2.0
L4265098L
tp3082
sL4226841L
(F21053761.25490196
L4226862L
tp3083
sL4321868L
(F16.0
L4321878L
tp3084
sL4256897L
(F3.5999999999999996
L4256898L
tp3085
sL4256898L
(F1.0434782608695652
L4256914L
tp3086
sL4330627L
(F16070.130268199233
L4330652L
tp3087
sL4338822L
(F2.0
L4338832L
tp3088
sL4335809L
(F140.71068169618894
L4335814L
tp3089
sL4265098L
(F4.0
L4265117L
tp3090
sL4297867L
(F32.0
L4297892L
tp3091
sL4233410L
(F1048576.0
L4233484L
tp3092
sL4234083L
(F1048576.0
L4234090L
tp3093
sL4338832L
(F2.0
L4338854L
tp3094
sL4273298L
(F8192.0
L4273332L
tp3095
sL4334446L
(F341.3333333333333
L4334468L
tp3096
sL4256919L
(F2.0869565217391304
L4256925L
tp3097
sL4330652L
(F32140.260536398466
L4330668L
tp3098
sL4256925L
(F1.0
L4257332L
tp3099
sL4281502L
(F481.88235294117646
L4281530L
tp3100
sL4306079L
(F8.0
L4306089L
tp3101
sL4243117L
(F223392838659.2508
L4243151L
tp3102
sL4324891L
(F1145324612.2666667
L4324896L
tp3103
sL4297892L
(F2.0
L4297916L
tp3104
sL4338854L
(F1.3333333333333333
L4338869L
tp3105
sL4248743L
(F4.0
L4248829L
tp3106
sL4289704L
(F32.0
L4289719L
tp3107
sL4265129L
(F1.0666666666666667
L4265139L
tp3108
sL4330668L
(F21426.84035759898
L4330719L
tp3109
sL4239762L
(F4294967296.0
L4239769L
tp3110
sL4304413L
(F2.0
L4304424L
tp3111
sL4253896L
(F1.0
L4254105L
tp3112
sL4265139L
(F16.0
L4265150L
tp3113
sL4273332L
(F8192.0
L4273338L
tp3114
sL4289719L
(F16.0
L4289727L
tp3115
sL4322489L
(F1.0
L4322538L
tp3116
sL4273338L
(F16384.0
L4273356L
tp3117
sL4314299L
(F5.333333333333333
L4314306L
tp3118
sL4297916L
(F4.0
L4298004L
tp3119
sL4225226L
(F131072.0
L4225233L
tp3120
sL4265150L
(F32.0
L4265160L
tp3121
sL4289727L
(F32.0
L4289767L
tp3122
sL4338880L
(F1.0
L4338882L
tp3123
sL4272600L
(F2.0
L4272795L
tp3124
sL4314306L
(F5.333333333333333
L4314344L
tp3125
sL4240580L
(F17179869184.0
L4240654L
tp3126
sL4306117L
(F4.0
L4306232L
tp3127
sL4326964L
(F32.0
L4326988L
tp3128
sL4265160L
(F32.0
L4265211L
tp3129
sL4273356L
(F32768.0
L4273387L
tp3130
sL4327629L
(F64.0
L4327649L
tp3131
sL4338896L
(F1.0
L4338912L
tp3132
sL4319135L
(F9.142857142857142
L4319150L
tp3133
sL4247076L
(F4.0
L4247088L
tp3134
sL4330719L
(F64280.52107279693
L4330729L
tp3135
sL4338912L
(F1.0
L4338921L
tp3136
sL4281570L
(F1927.5294117647059
L4281610L
tp3137
sL4322171L
(F28.444444444444443
L4322198L
tp3138
sL4265632L
(F1.0
L4265659L
tp3139
sL4289767L
(F64.0
L4289822L
tp3140
sL4314344L
(F1.0
L4314346L
tp3141
sL4330729L
(F8035.065134099616
L4330754L
tp3142
sL4322538L
(F2.0
L4322553L
tp3143
sL4273387L
(F16384.0
L4273393L
tp3144
sL4308771L
(F1.0
L4308773L
tp3145
sL4267778L
(F682.6666666666666
L4267811L
tp3146
sL4273393L
(F32768.0
L4273407L
tp3147
sL4217043L
(F1.0
L4217062L
tp3148
sL4232437L
(F65536.0
L4232444L
tp3149
sL4284228L
(F2.0
L4284233L
tp3150
sL4322553L
(F4.0
L4322572L
tp3151
sL4265211L
(F64.0
L4265221L
tp3152
sL4232444L
(F65536.0
L4232499L
tp3153
sL4248829L
(F8.0
L4248862L
tp3154
sL4229333L
(F4042322160.9411764
L4229420L
tp3155
sL4264832L
(F8.0
L4264844L
tp3156
sL4330754L
(F16070.130268199233
L4330770L
tp3157
sL4254215L
(F2.0
L4254257L
tp3158
sL4265221L
(F64.0
L4265227L
tp3159
sL4271135L
(F112.0
L4271159L
tp3160
sL4281610L
(F550.7226890756302
L4281632L
tp3161
sL4265227L
(F128.0
L4265237L
tp3162
sL4322572L
(F8.0
L4322590L
tp3163
sL4240654L
(F34359738368.0
L4240661L
tp3164
sL4312621L
(F4.0
L4312631L
tp3165
sL4330770L
(F10713.42017879949
L4330821L
tp3166
sL4298004L
(F8.0
L4298040L
tp3167
sL4240661L
(F34359738368.0
L4240721L
tp3168
sL4218590L
(F2.0
L4218600L
tp3169
sL4308527L
(F36.0
L4308556L
tp3170
sL4273436L
(F32768.0
L4273450L
tp3171
sL4249818L
(F2.0
L4249853L
tp3172
sL4289822L
(F64.0
L4289837L
tp3173
sL4281632L
(F3855.0588235294117
L4281757L
tp3174
sL4329008L
(F32.0
L4329010L
tp3175
sL4241627L
(F137438953472.0
L4241632L
tp3176
sL4248869L
(F16.0
L4248933L
tp3177
sL4334631L
(F1820.4444444444443
L4334638L
tp3178
sL4273450L
(F65536.0
L4273484L
tp3179
sL4304434L
(F4.0
L4304448L
tp3180
sL4232499L
(F16384.0
L4232527L
tp3181
sL4224308L
(F512.0
L4224323L
tp3182
sL4216117L
(F40.0
L4216131L
tp3183
sL4322615L
(F2.4615384615384617
L4322635L
tp3184
sL6477112L
(F1.0
L6477116L
tp3185
sL4334893L
(F1365.3333333333333
L4334903L
tp3186
sL4310681L
(F16.0
L4310697L
tp3187
sL4330103L
(F32140.260536398466
L4330108L
tp3188
sL4306239L
(F8.0
L4306244L
tp3189
sL6477120L
(F1.0
L6477124L
tp3190
sL4316146L
(F9.142857142857142
L4316153L
tp3191
sL4216131L
(F80.0
L4216178L
tp3192
sL4306244L
(F1.1428571428571428
L4306259L
tp3193
sL4330821L
(F32140.260536398466
L4330831L
tp3194
sL4298054L
(F8.0
L4298095L
tp3195
sL4314439L
(F2.0
L4314444L
tp3196
sL6477128L
(F1.0
L6477132L
tp3197
sL4326284L
(F390.0952380952381
L4326306L
tp3198
sL4267591L
(F682.6666666666666
L4267638L
tp3199
sL4322635L
(F1.641025641025641
L4322650L
tp3200
sL4314444L
(F4.0
L4314449L
tp3201
sL4316692L
(F5.333333333333333
L4316699L
tp3202
sL4330831L
(F16070.130268199233
L4330856L
tp3203
sL6477136L
(F1.0
L6477140L
tp3204
sL4240721L
(F8589934592.0
L4240736L
tp3205
sL4224338L
(F2048.0
L4224388L
tp3206
sL4306259L
(F2.2857142857142856
L4306264L
tp3207
sL6477140L
(F1.0
L6477144L
tp3208
sL4273494L
(F11915.636363636364
L4273514L
tp3209
sL4314456L
(F8.0
L4314461L
tp3210
sL4258020L
(F1.0
L4259050L
tp3211
sL4322650L
(F3.282051282051282
L4322675L
tp3212
sL4232540L
(F65536.0
L4232572L
tp3213
sL4314461L
(F16.0
L4314463L
tp3214
sL4314463L
(F8.0
L4314484L
tp3215
sL6477152L
(F1.0
L6477156L
tp3216
sL6477156L
(F1.0
L6477160L
tp3217
sL4319462L
(F63.98437881376617
L4319477L
tp3218
sL4240743L
(F17179869184.0
L4240798L
tp3219
sL4330856L
(F32140.260536398466
L4330872L
tp3220
sL4329020L
(F32.0
L4329036L
tp3221
sL4273514L
(F23831.272727272728
L4273564L
tp3222
sL6477164L
(F1.0
L6477168L
tp3223
sL4280413L
(F2.0
L4280415L
tp3224
sL4298095L
(F1.0
L4298117L
tp3225
sL4334424L
(F170.66666666666666
L4334446L
tp3226
sL4248945L
(F1.4545454545454546
L4248962L
tp3227
sL4216178L
(F40.0
L4216232L
tp3228
sL4322675L
(F3.282051282051282
L4322690L
tp3229
sL6477172L
(F1.0
L6477176L
tp3230
sL4278505L
(F1.3333333333333333
L4278519L
tp3231
sL6477176L
(F1.0
L6477180L
tp3232
sL4219796L
(F4.0
L4219827L
tp3233
sL6477180L
(F1.0
L6477184L
tp3234
sL4265341L
(F512.0
L4265343L
tp3235
sL4217342L
(F8.0
L4217348L
tp3236
sL4265343L
(F256.0
L4265395L
tp3237
sL6477184L
(F1.0
L6477188L
tp3238
sL4218492L
(F2.0
L4218497L
tp3239
sL4322690L
(F6.564102564102564
L4322715L
tp3240
sL6477188L
(F1.0
L6477192L
tp3241
sL4298117L
(F2.0
L4298142L
tp3242
sL4232583L
(F262144.0
L4232590L
tp3243
sL6477192L
(F1.0
L6477196L
tp3244
sL4314505L
(F8.0
L4314526L
tp3245
sL4285324L
(F8.0
L4285458L
tp3246
sL4224395L
(F4096.0
L4224466L
tp3247
sL6477196L
(F1.0
L6477200L
tp3248
sL4232590L
(F262144.0
L4232595L
tp3249
sL4266221L
(F2.0
L4266360L
tp3250
sL6477200L
(F1.0
L6477204L
tp3251
sL4248977L
(F2.0
L4248982L
tp3252
sL4232595L
(F262144.0
L4232635L
tp3253
sL6477204L
(F1.0
L6477208L
tp3254
sL4270318L
(F28.0
L4270325L
tp3255
sL4248982L
(F2.0
L4248984L
tp3256
sL4289943L
(F128.0
L4289958L
tp3257
sL6477208L
(F1.0
L6477212L
tp3258
sL4320836L
(F16384.0
L4320851L
tp3259
sL4328697L
(F8.0
L4328704L
tp3260
sL6477212L
(F1.0
L6477216L
tp3261
sL4281757L
(F7710.117647058823
L4281779L
tp3262
sL4298142L
(F2.0
L4298148L
tp3263
sL6477216L
(F1.0
L6477220L
tp3264
sL4327664L
(F128.0
L4327689L
tp3265
sL4338587L
(F32.0
L4338612L
tp3266
sL6477220L
(F1.0
L6477224L
tp3267
sL4318756L
(F455.1111111111111
L4318782L
tp3268
sL4289958L
(F64.0
L4289962L
tp3269
sL4319150L
(F8.533333333333333
L4319164L
tp3270
sL4216232L
(F80.0
L4216357L
tp3271
sL4322730L
(F13.128205128205128
L4322776L
tp3272
sL4330923L
(F64280.52107279693
L4330933L
tp3273
sL6477228L
(F1.0
L6477232L
tp3274
sL4247954L
(F1.0
L4248207L
tp3275
sL4232951L
(F262144.0
L4233025L
tp3276
sL6477232L
(F1.0
L6477236L
tp3277
sL4281779L
(F481.88235294117646
L4281797L
tp3278
sL6477236L
(F1.0
L6477240L
tp3279
sL4330933L
(F502.191570881226
L4330958L
tp3280
sL4289975L
(F8.0
L4289978L
tp3281
sL6477240L
(F1.0
L6477244L
tp3282
sL4289978L
(F16.0
L4289981L
tp3283
sL4232635L
(F524288.0
L4232642L
tp3284
sL6477244L
(F1.0
L6477248L
tp3285
sL4289981L
(F32.0
L4289984L
tp3286
sL4270325L
(F28.0
L4270341L
tp3287
sL6477248L
(F1.0
L6477252L
tp3288
sL4256672L
(F72.0
L4256717L
tp3289
sL4232642L
(F524288.0
L4232702L
tp3290
sL4289987L
(F128.0
L4289988L
tp3291
sL6477252L
(F1.0
L6477256L
tp3292
sL4281797L
(F963.7647058823529
L4281807L
tp3293
sL4314566L
(F1.0
L4314598L
tp3294
sL6477256L
(F1.0
L6477260L
tp3295
sL4278519L
(F2.6666666666666665
L4278530L
tp3296
sL6477260L
(F1.0
L6477264L
tp3297
sL4330958L
(F1004.383141762452
L4330974L
tp3298
sL4298191L
(F8.0
L4298226L
tp3299
sL6477264L
(F1.0
L6477268L
tp3300
sL4218864L
(F2.0
L4218869L
tp3301
sL4224466L
(F8192.0
L4224481L
tp3302
sL4232099L
(F32768.0
L4232106L
tp3303
sL6477268L
(F1.0
L6477272L
tp3304
sL6477272L
(F1.0
L6477276L
tp3305
sL4265433L
(F256.0
L4265443L
tp3306
sL4292175L
(F8.0
L4292180L
tp3307
sL4237317L
(F67108864.0
L4237332L
tp3308
sL4273629L
(F190650.18181818182
L4273645L
tp3309
sL4330974L
(F1004.383141762452
L4331025L
tp3310
sL6477280L
(F1.0
L6477284L
tp3311
sL4224481L
(F16384.0
L4224488L
tp3312
sL4265443L
(F512.0
L4265453L
tp3313
sL6477284L
(F1.0
L6477288L
tp3314
sL4289146L
(F4.0
L4289162L
tp3315
sL4314598L
(F2.0
L4314605L
tp3316
sL4240871L
(F8589934592.0
L4240878L
tp3317
sL6477288L
(F1.0
L6477292L
tp3318
sL4217084L
(F1.0
L4217100L
tp3319
sL6477292L
(F1.0
L6477296L
tp3320
sL4273645L
(F381300.36363636365
L4273661L
tp3321
sL4240878L
(F8589934592.0
L4240933L
tp3322
sL4294909L
(F14.222222222222221
L4294910L
tp3323
sL6477296L
(F1.0
L6477300L
tp3324
sL4334504L
(F682.6666666666666
L4334511L
tp3325
sL4298226L
(F2.6666666666666665
L4298231L
tp3326
sL4265459L
(F1024.0
L4265469L
tp3327
sL6477300L
(F1.0
L6477304L
tp3328
sL4294910L
(F5.565217391304348
L4294951L
tp3329
sL4298231L
(F2.0
L4298233L
tp3330
sL6477304L
(F1.0
L6477308L
tp3331
sL4298233L
(F1.0
L4298252L
tp3332
sL4281236L
(F30.11764705882353
L4281244L
tp3333
sL6477308L
(F1.0
L6477312L
tp3334
sL4265469L
(F1024.0
L4265500L
tp3335
sL4232702L
(F65536.0
L4232775L
tp3336
sL4322815L
(F4.923076923076923
L4322825L
tp3337
sL6477312L
(F1.0
L6477316L
tp3338
sL6477316L
(F1.0
L6477320L
tp3339
sL6477320L
(F1.0
L6477324L
tp3340
sL4322825L
(F2.5098039215686274
L4322850L
tp3341
sL6477224L
(F1.0
L6477228L
tp3342
sL6477324L
(F1.0
L6477328L
tp3343
sL4294261L
(F4.0
L4294286L
tp3344
sL6477328L
(F1.0
L6477332L
tp3345
sL4331025L
(F2008.766283524904
L4331035L
tp3346
sL4273682L
(F190650.18181818182
L4273702L
tp3347
sL6477332L
(F1.0
L6477336L
tp3348
sL4301742L
(F256.0
L4301837L
tp3349
sL4304473L
(F4.0
L4304487L
tp3350
sL6477336L
(F1.0
L6477340L
tp3351
sL4331035L
(F32140.260536398466
L4331060L
tp3352
sL6477340L
(F1.0
L6477344L
tp3353
sL4312666L
(F2.6666666666666665
L4312682L
tp3354
sL4324758L
(F286331153.06666666
L4324763L
tp3355
sL4224543L
(F512.0
L4224553L
tp3356
sL6477344L
(F1.0
L6477348L
tp3357
sL4281264L
(F60.23529411764706
L4281283L
tp3358
sL4322850L
(F5.019607843137255
L4322866L
tp3359
sL4314659L
(F1.0
L4314661L
tp3360
sL6477348L
(F1.0
L6477352L
tp3361
sL4216357L
(F40.0
L4216371L
tp3362
sL4273702L
(F190650.18181818182
L4273716L
tp3363
sL6477352L
(F1.0
L6477356L
tp3364
sL4224553L
(F512.0
L4224562L
tp3365
sL6477356L
(F1.0
L6477360L
tp3366
sL4289458L
(F4.0
L4289466L
tp3367
sL6477360L
(F1.0
L6477364L
tp3368
sL4322866L
(F5.019607843137255
L4322914L
tp3369
sL4216371L
(F80.0
L4216415L
tp3370
sL4265524L
(F2048.0
L4265557L
tp3371
sL4283998L
(F2.0
L4284027L
tp3372
sL4327689L
(F256.0
L4327709L
tp3373
sL6477368L
(F1.0
L6477372L
tp3374
sL4298297L
(F4.0
L4298306L
tp3375
sL4257339L
(F2.0
L4257344L
tp3376
sL6477372L
(F1.0
L6477376L
tp3377
sL4335882L
(F1365.3333333333333
L4335910L
tp3378
sL6477376L
(F1.0
L6477380L
tp3379
sL4240961L
(F4294967296.0
L4240974L
tp3380
sL4298306L
(F4.0
L4298311L
tp3381
sL4225318L
(F131072.0
L4225370L
tp3382
sL6477380L
(F1.0
L6477384L
tp3383
sL4298311L
(F2.0
L4298313L
tp3384
sL6477384L
(F1.0
L6477388L
tp3385
sL4298313L
(F1.0
L4298435L
tp3386
sL4322231L
(F32.0
L4322263L
tp3387
sL4314700L
(F2.0
L4314710L
tp3388
sL4273741L
(F63550.06060606061
L4273752L
tp3389
sL4224590L
(F4096.0
L4224605L
tp3390
sL6477392L
(F1.0
L6477396L
tp3391
sL4326328L
(F1560.3809523809523
L4326335L
tp3392
sL4276020L
(F2.0
L4276052L
tp3393
sL6477396L
(F1.0
L6477400L
tp3394
sL4265557L
(F1024.0
L4265568L
tp3395
sL4314710L
(F2.0
L4314726L
tp3396
sL6477400L
(F1.0
L6477404L
tp3397
sL4319503L
(F127.96875762753234
L4319522L
tp3398
sL4279057L
(F4.0
L4279077L
tp3399
sL4240989L
(F17179869184.0
L4241088L
tp3400
sL4216415L
(F40.0
L4216526L
tp3401
sL6477408L
(F1.0
L6477412L
tp3402
sL4237867L
(F134217728.0
L4237882L
tp3403
sL4322914L
(F10.03921568627451
L4322921L
tp3404
sL4273056L
(F128.0
L4273066L
tp3405
sL4224612L
(F4096.0
L4224662L
tp3406
sL4314726L
(F4.0
L4314736L
tp3407
sL6477416L
(F1.0
L6477420L
tp3408
sL4322921L
(F1.2549019607843137
L4322936L
tp3409
sL4304487L
(F8.0
L4304492L
tp3410
sL6477420L
(F1.0
L6477424L
tp3411
sL4314736L
(F4.0
L4314752L
tp3412
sL6477412L
(F1.0
L6477416L
tp3413
sL4265587L
(F4096.0
L4265625L
tp3414
sL4331127L
(F128561.04214559386
L4331137L
tp3415
sL4322936L
(F2.5098039215686274
L4322969L
tp3416
sL4210044L
(F1.0
L4210050L
tp3417
sL4306554L
(F2.0
L4306574L
tp3418
sL4219839L
(F8.0
L4219843L
tp3419
sL4312682L
(F5.333333333333333
L4312692L
tp3420
sL4249877L
(F1.0
L4249892L
tp3421
sL4314752L
(F8.0
L4314762L
tp3422
sL4331137L
(F8035.065134099616
L4331162L
tp3423
sL4233268L
(F262144.0
L4233281L
tp3424
sL4324595L
(F71582788.26666667
L4324611L
tp3425
sL4232837L
(F32768.0
L4232865L
tp3426
sL4270875L
(F16.0
L4270888L
tp3427
sL4314762L
(F8.0
L4314788L
tp3428
sL4299872L
(F4.0
L4299875L
tp3429
sL4306574L
(F4.0
L4306604L
tp3430
sL4277422L
(F1.0
L4277484L
tp3431
sL4225304L
(F65536.0
L4225318L
tp3432
sL4281283L
(F120.47058823529412
L4281301L
tp3433
sL4223684L
(F32.0
L4223699L
tp3434
sL4224662L
(F2048.0
L4224672L
tp3435
sL4273817L
(F63550.06060606061
L4273831L
tp3436
sL4331162L
(F16070.130268199233
L4331178L
tp3437
sL4322971L
(F1.0
L4323054L
tp3438
sL4265630L
(F1.0
L4265632L
tp3439
sL4224672L
(F1024.0
L4224681L
tp3440
sL4282017L
(F15420.235294117647
L4282056L
tp3441
sL4318340L
(F2.0
L4318346L
tp3442
sL4297063L
(F4369.066666666667
L4297078L
tp3443
sL4314788L
(F16.0
L4314795L
tp3444
sL4273831L
(F95325.09090909091
L4273833L
tp3445
sL4273833L
(F11915.636363636364
L4273903L
tp3446
sL4331178L
(F10713.42017879949
L4331229L
tp3447
sL4314795L
(F16.0
L4314811L
tp3448
sL4306604L
(F8.0
L4306614L
tp3449
sL4232878L
(F131072.0
L4232951L
tp3450
sL4327709L
(F256.0
L4327724L
tp3451
sL4241497L
(F34359738368.0
L4241512L
tp3452
sL4224692L
(F4096.0
L4224709L
tp3453
sL4306614L
(F8.0
L4306645L
tp3454
sL4209591L
(F2.0
L4209604L
tp3455
sL4337268L
(F219.70597256986653
L4337314L
tp3456
sL4246599L
(F8.0
L4246613L
tp3457
sL4314811L
(F32.0
L4314818L
tp3458
sL4208320L
(F1.0
L4208362L
tp3459
sL4314818L
(F32.0
L4314921L
tp3460
sL4298435L
(F2.0
L4298460L
tp3461
sL4224709L
(F8192.0
L4224724L
tp3462
sL4265671L
(F4.0
L4265690L
tp3463
sL4282056L
(F30840.470588235294
L4282096L
tp3464
sL4332397L
(F1198372.5714285714
L4332411L
tp3465
sL4289972L
(F4.0
L4289975L
tp3466
sL4249292L
(F4.0
L4249299L
tp3467
sL4319522L
(F255.93751525506468
L4319541L
tp3468
sL4216526L
(F3.6363636363636362
L4216527L
tp3469
sL4216527L
(F1.0389610389610389
L4216543L
tp3470
sL4324984L
(F1.0
L4325070L
tp3471
sL4249299L
(F4.0
L4249389L
tp3472
sL4224724L
(F16384.0
L4224731L
tp3473
sL4306645L
(F16.0
L4306655L
tp3474
sL4242781L
(F223392838659.2508
L4242788L
tp3475
sL4265690L
(F8.0
L4265702L
tp3476
sL4224731L
(F8192.0
L4224781L
tp3477
sL4288963L
(F2.0
L4288976L
tp3478
sL4331229L
(F32140.260536398466
L4331239L
tp3479
sL4306655L
(F16.0
L4306663L
tp3480
sL4264912L
(F64.0
L4264922L
tp3481
sL4263547L
(F1.0
L4263549L
tp3482
sL4216548L
(F2.0779220779220777
L4216558L
tp3483
sL4335910L
(F910.2222222222222
L4335929L
tp3484
sL4298470L
(F4.0
L4298495L
tp3485
sL4331239L
(F16070.130268199233
L4331264L
tp3486
sL4292220L
(F2.0
L4292245L
tp3487
sL4242870L
(F111696419329.6254
L4242920L
tp3488
sL4311335L
(F12.8
L4311345L
tp3489
sL4210246L
(F1.0
L4210293L
tp3490
sL4265709L
(F16.0
L4265798L
tp3491
sL4323054L
(F2.0
L4323072L
tp3492
sL4273903L
(F23831.272727272728
L4273904L
tp3493
sL4273904L
(F7943.757575757576
L4273921L
tp3494
sL4226722L
(F1347440720.3137255
L4226731L
tp3495
sL4226686L
(F84215045.01960784
L4226695L
tp3496
sL4294953L
(F1.0
L4295027L
tp3497
sL4238975L
(F268435456.0
L4238988L
tp3498
sL4241706L
(F274877906944.0
L4241713L
tp3499
sL4288337L
(F2.0
L4288368L
tp3500
sL4281301L
(F30.11764705882353
L4281309L
tp3501
sL4331264L
(F32140.260536398466
L4331280L
tp3502
sL4273921L
(F2048.0
L4273933L
tp3503
sL4213035L
(F1.0
L4213138L
tp3504
sL4208389L
(F2.0
L4208399L
tp3505
sL4282118L
(F61680.94117647059
L4282239L
tp3506
sL4257543L
(F2.0
L4257550L
tp3507
sL4327724L
(F512.0
L4327749L
tp3508
sL4241162L
(F68719476736.0
L4241169L
tp3509
sL4282915L
(F1.0682410151705526
L4282930L
tp3510
sL4246329L
(F30.0
L4246336L
tp3511
sL4257550L
(F2.0
L4257555L
tp3512
sL4208399L
(F4.0
L4208407L
tp3513
sL4331280L
(F21426.84035759898
L4331331L
tp3514
sL4241169L
(F68719476736.0
L4241229L
tp3515
sL4273939L
(F8192.0
L4273957L
tp3516
sL4298516L
(F4.0
L4298552L
tp3517
sL4293593L
(F2184.5333333333333
L4293605L
tp3518
sL4323097L
(F8.0
L4323113L
tp3519
sL4216603L
(F1.0
L4216609L
tp3520
sL4273114L
(F256.0
L4273124L
tp3521
sL4208416L
(F1.3333333333333333
L4208418L
tp3522
sL4223819L
(F64.0
L4223869L
tp3523
sL4273957L
(F16384.0
L4273991L
tp3524
sL4311345L
(F4.266666666666667
L4311356L
tp3525
sL4323113L
(F5.333333333333333
L4323161L
tp3526
sL4314923L
(F1.0
L4314955L
tp3527
sL4237618L
(F268435456.0
L4237636L
tp3528
sL4208432L
(F1.0
L4208432L
tp3529
sL4266789L
(F4.0
L4266824L
tp3530
sL4314526L
(F16.0
L4314547L
tp3531
sL4298552L
(F8.0
L4298561L
tp3532
sL4332257L
(F524288.0
L4332273L
tp3533
sL4249406L
(F1.0
L4249421L
tp3534
sL4298561L
(F16.0
L4298582L
tp3535
sL4216643L
(F2.0
L4216657L
tp3536
sL4224781L
(F4096.0
L4224791L
tp3537
sL4265798L
(F32.0
L4265806L
tp3538
sL4232161L
(F8192.0
L4232189L
tp3539
sL4233032L
(F524288.0
L4233092L
tp3540
sL4325954L
(F292.57142857142856
L4325969L
tp3541
sL4314955L
(F2.0
L4314962L
tp3542
sL4249421L
(F2.0
L4249426L
tp3543
sL4265806L
(F16.0
L4265810L
tp3544
sL4216657L
(F1.0
L4216663L
tp3545
sL4314962L
(F2.0
L4314978L
tp3546
sL4208467L
(F2.0
L4208477L
tp3547
sL4265812L
(F1.0
L4265827L
tp3548
sL4298582L
(F8.0
L4298622L
tp3549
sL4216663L
(F1.0
L4216678L
tp3550
sL4323161L
(F16.0
L4323171L
tp3551
sL4226964L
(F42107522.50980392
L4226973L
tp3552
sL4318716L
(F227.55555555555554
L4318723L
tp3553
sL4241244L
(F34359738368.0
L4241251L
tp3554
sL4208477L
(F4.0
L4208485L
tp3555
sL4274014L
(F16384.0
L4274024L
tp3556
sL4277221L
(F1.0
L4277236L
tp3557
sL4226704L
(F336860180.07843137
L4226713L
tp3558
sL4314978L
(F4.0
L4314985L
tp3559
sL4265827L
(F2.0
L4265837L
tp3560
sL4263790L
(F32.0
L4263853L
tp3561
sL4331366L
(F4017.532567049808
L4331382L
tp3562
sL4274024L
(F16384.0
L4274036L
tp3563
sL4311356L
(F8.533333333333333
L4311380L
tp3564
sL4329409L
(F32.0
L4329424L
tp3565
sL4224876L
(F8192.0
L4224883L
tp3566
sL4265837L
(F2.0
L4265842L
tp3567
sL4306798L
(F8.0
L4306805L
tp3568
sL4208496L
(F1.0
L4208505L
tp3569
sL4216689L
(F2.0
L4216693L
tp3570
sL4265842L
(F1.0
L4265844L
tp3571
sL4224883L
(F4096.0
L4224944L
tp3572
sL4274036L
(F32768.0
L4274070L
tp3573
sL4306805L
(F8.0
L4306810L
tp3574
sL4331382L
(F2678.3550446998725
L4331433L
tp3575
sL4314999L
(F8.0
L4315010L
tp3576
sL6477148L
(F1.0
L6477152L
tp3577
sL4208505L
(F2.0
L4208522L
tp3578
sL4306810L
(F1.0666666666666667
L4306825L
tp3579
sL4323196L
(F4.266666666666667
L4323212L
tp3580
sL4276066L
(F2.0
L4276083L
tp3581
sL4298622L
(F16.0
L4298837L
tp3582
sL4282239L
(F123361.88235294117
L4282261L
tp3583
sL4315010L
(F16.0
L4315022L
tp3584
sL4322283L
(F42.666666666666664
L4322294L
tp3585
sL4233092L
(F131072.0
L4233165L
tp3586
sL4317802L
(F56.888888888888886
L4317819L
tp3587
sL4265863L
(F2.0
L4265880L
tp3588
sL4306825L
(F2.1333333333333333
L4306830L
tp3589
sL4208522L
(F1.0
L4208524L
tp3590
sL4216715L
(F2.0
L4216729L
tp3591
sL4323212L
(F4.266666666666667
L4323274L
tp3592
sL4315458L
(F1.0
L4315460L
tp3593
sL4315022L
(F32.0
L4315038L
tp3594
sL4290447L
(F2.0
L4290449L
tp3595
sL4306832L
(F1.0
L4306873L
tp3596
sL4290449L
(F1.0
L4290468L
tp3597
sL4234331L
(F8388608.0
L4234345L
tp3598
sL4282261L
(F123361.88235294117
L4282268L
tp3599
sL4274070L
(F16384.0
L4274076L
tp3600
sL4265880L
(F2.0
L4265885L
tp3601
sL4216729L
(F1.0
L4216732L
tp3602
sL4306266L
(F1.0
L4306544L
tp3603
sL4208539L
(F1.3333333333333333
L4208541L
tp3604
sL4274076L
(F32768.0
L4274087L
tp3605
sL4265885L
(F1.0
L4265887L
tp3606
sL4315038L
(F4.266666666666667
L4315054L
tp3607
sL4265887L
(F1.0
L4265906L
tp3608
sL4208544L
(F2.0
L4208554L
tp3609
sL4290468L
(F2.0
L4290493L
tp3610
sL4274087L
(F65536.0
L4274121L
tp3611
sL4331433L
(F8035.065134099616
L4331443L
tp3612
sL4208554L
(F4.0
L4208566L
tp3613
sL4282283L
(F1912.5873233014136
L4282296L
tp3614
sL4281330L
(F240.94117647058823
L4281337L
tp3615
sL4315054L
(F64.0
L4315068L
tp3616
sL4264854L
(F16.0
L4264865L
tp3617
sL4224944L
(F4096.0
L4224956L
tp3618
sL4319560L
(F1023.7500610202587
L4319575L
tp3619
sL4265906L
(F2.0
L4265918L
tp3620
sL4331443L
(F32140.260536398466
L4331468L
tp3621
sL4321651L
(F1.0
L4321798L
tp3622
sL4310369L
(F2.208339695319649
L4310371L
tp3623
sL4208566L
(F1.0
L4208581L
tp3624
sL4208969L
(F1.3333333333333333
L4208974L
tp3625
sL4282296L
(F1912.5873233014136
L4282338L
tp3626
sL4273140L
(F512.0
L4273148L
tp3627
sL4315068L
(F4.0
L4315073L
tp3628
sL4290493L
(F2.0
L4290693L
tp3629
sL4265918L
(F4.0
L4265974L
tp3630
sL4315073L
(F1.0
L4315075L
tp3631
sL4315075L
(F1.0
L4315107L
tp3632
sL4208581L
(F2.0
L4208615L
tp3633
sL4275873L
(F2.0
L4275884L
tp3634
sL4274121L
(F131072.0
L4274129L
tp3635
sL4323274L
(F8.533333333333333
L4323281L
tp3636
sL4273991L
(F8192.0
L4274014L
tp3637
sL4331468L
(F64280.52107279693
L4331484L
tp3638
sL4233165L
(F262144.0
L4233172L
tp3639
sL4216783L
(F1.0
L4216798L
tp3640
sL4323281L
(F1.0666666666666667
L4323294L
tp3641
sL4319349L
(F4096.0
L4319360L
tp3642
sL4312739L
(F2.4615384615384617
L4312766L
tp3643
sL4233172L
(F262144.0
L4233227L
tp3644
sL4208974L
(F1.0
L4208976L
tp3645
sL4274140L
(F262144.0
L4274151L
tp3646
sL4216798L
(F2.0
L4216808L
tp3647
sL4333221L
(F181.98520446903134
L4333236L
tp3648
sL4321624L
(F4.0
L4321630L
tp3649
sL4231333L
(F256.0
L4231388L
tp3650
sL4282338L
(F3825.174646602827
L4282352L
tp3651
sL4315107L
(F2.0
L4315114L
tp3652
sL4306916L
(F2.0
L4306975L
tp3653
sL4274151L
(F524288.0
L4274155L
tp3654
sL4216808L
(F2.0
L4216813L
tp3655
sL4315114L
(F2.0
L4315130L
tp3656
sL4274155L
(F18724.571428571428
L4274170L
tp3657
sL4216813L
(F1.0
L4216815L
tp3658
sL4216815L
(F1.0
L4216835L
tp3659
sL4282352L
(F7650.349293205654
L4282374L
tp3660
sL4225009L
(F16384.0
L4225067L
tp3661
sL4265977L
(F1.0
L4265996L
tp3662
sL4265974L
(F1.0
L4265977L
tp3663
sL4330081L
(F4017.532567049808
L4330090L
tp3664
sL4311380L
(F5.688888888888889
L4311396L
tp3665
sL4315130L
(F4.0
L4315137L
tp3666
sL4323327L
(F8.533333333333333
L4323334L
tp3667
sL4315137L
(F4.0
L4315151L
tp3668
sL4316843L
(F12.0
L4316900L
tp3669
sL4232234L
(F65536.0
L4232245L
tp3670
sL4323334L
(F2.8444444444444446
L4323339L
tp3671
sL4325994L
(F585.1428571428571
L4326009L
tp3672
sL4267692L
(F5461.333333333333
L4267739L
tp3673
sL4323339L
(F2.1333333333333333
L4323368L
tp3674
sL4265996L
(F2.0
L4266008L
tp3675
sL4216846L
(F1.0
L4216849L
tp3676
sL4315151L
(F8.0
L4315162L
tp3677
sL4216849L
(F1.0
L4216892L
tp3678
sL4274194L
(F149796.57142857142
L4274206L
tp3679
sL4249619L
(F1.0
L4249665L
tp3680
sL4282389L
(F15300.698586411308
L4282411L
tp3681
sL4266008L
(F4.0
L4266023L
tp3682
sL4331545L
(F8035.065134099616
L4331570L
tp3683
sL4315162L
(F16.0
L4315174L
tp3684
sL4251311L
(F1.3333333333333333
L4251316L
tp3685
sL4225370L
(F262144.0
L4225377L
tp3686
sL4274206L
(F99864.38095238095
L4274224L
tp3687
sL4306975L
(F1.3333333333333333
L4307114L
tp3688
sL4241441L
(F4294967296.0
L4241469L
tp3689
sL4278619L
(F10.666666666666666
L4278633L
tp3690
sL4315174L
(F32.0
L4315190L
tp3691
sL4266023L
(F2.0
L4266035L
tp3692
sL4323368L
(F1.5421686746987953
L4323370L
tp3693
sL4323370L
(F1.0
L4323423L
tp3694
sL4282411L
(F15300.698586411308
L4282430L
tp3695
sL6477132L
(F1.0
L6477136L
tp3696
sL4274224L
(F46091.25274725275
L4274250L
tp3697
sL4314120L
(F4.0
L4314157L
tp3698
sL4304987L
(F2.6666666666666665
L4305042L
tp3699
sL4266035L
(F1.0
L4266038L
tp3700
sL4225076L
(F16384.0
L4225091L
tp3701
sL4315190L
(F4.266666666666667
L4315206L
tp3702
sL4284335L
(F1.0
L4284358L
tp3703
sL4284084L
(F4.0
L4284085L
tp3704
sL4314985L
(F4.0
L4314999L
tp3705
sL4216892L
(F2.0
L4216899L
tp3706
sL4241469L
(F8589934592.0
L4241482L
tp3707
sL4282430L
(F30601.397172822617
L4282610L
tp3708
sL4286711L
(F8.0
L4286714L
tp3709
sL4208704L
(F4.0
L4208730L
tp3710
sL4249665L
(F1.0
L4249720L
tp3711
sL4331586L
(F10713.42017879949
L4331637L
tp3712
sL4225091L
(F32768.0
L4225098L
tp3713
sL4217970L
(F2.0
L4217975L
tp3714
sL4315206L
(F64.0
L4315220L
tp3715
sL4274250L
(F92182.5054945055
L4274261L
tp3716
sL4233292L
(F524288.0
L4233317L
tp3717
sL4259706L
(F4.0
L4260050L
tp3718
sL4301837L
(F512.0
L4301966L
tp3719
sL4263934L
(F1.1428571428571428
L4263944L
tp3720
sL4315220L
(F4.0
L4315225L
tp3721
sL4298837L
(F32.0
L4298885L
tp3722
sL4306049L
(F4.0
L4306079L
tp3723
sL4315225L
(F1.0
L4315227L
tp3724
sL4208730L
(F4.0
L4208774L
tp3725
sL4315227L
(F1.0
L4315242L
tp3726
sL4323423L
(F2.0
L4323448L
tp3727
sL4338268L
(F2048.0
L4338277L
tp3728
sL4229478L
(F16169288643.764706
L4229485L
tp3729
sL4334609L
(F910.2222222222222
L4334631L
tp3730
sL4241512L
(F68719476736.0
L4241627L
tp3731
sL4315242L
(F1.0
L4315289L
tp3732
sL4318226L
(F2.0
L4318247L
tp3733
sL4274286L
(F46091.25274725275
L4274368L
tp3734
sL4214698L
(F2.0
L4214703L
tp3735
sL4224791L
(F2048.0
L4224830L
tp3736
sL4331637L
(F32140.260536398466
L4331647L
tp3737
sL4217193L
(F2.0
L4217209L
tp3738
sL4323448L
(F4.0
L4323464L
tp3739
sL4331647L
(F16070.130268199233
L4331672L
tp3740
sL4225152L
(F16384.0
L4225171L
tp3741
sL4234944L
(F22369621.333333332
L4235018L
tp3742
sL4298885L
(F21.333333333333332
L4299013L
tp3743
sL4208774L
(F2.0
L4208795L
tp3744
sL4323464L
(F4.0
L4323526L
tp3745
sL4216969L
(F4.0
L4216982L
tp3746
sL4278530L
(F5.333333333333333
L4278619L
tp3747
sL4284053L
(F8.0
L4284072L
tp3748
sL4218518L
(F2.0
L4218536L
tp3749
sL4335981L
(F1040.2539682539682
L4336000L
tp3750
sL4264984L
(F64.0
L4264995L
tp3751
sL4225171L
(F32768.0
L4225180L
tp3752
sL4216982L
(F8.0
L4217018L
tp3753
sL4331672L
(F32140.260536398466
L4331688L
tp3754
sL4315289L
(F2.0
L4315296L
tp3755
sL4208795L
(F2.0
L4208800L
tp3756
sL4225180L
(F65536.0
L4225226L
tp3757
sL4275909L
(F1.0
L4275967L
tp3758
sL4315296L
(F2.0
L4315314L
tp3759
sL4208802L
(F1.0
L4208833L
tp3760
sL4277167L
(F2.0
L4277221L
tp3761
sL4290727L
(F2.0
L4290754L
tp3762
sL4331688L
(F21426.84035759898
L4331739L
tp3763
sL4322332L
(F113.77777777777777
L4322339L
tp3764
sL4307114L
(F4.0
L4307129L
tp3765
sL4289988L
(F2.0317460317460316
L4290447L
tp3766
sL4315506L
(F2.0
L4315511L
tp3767
sL4207645L
(F1.0
L4207650L
tp3768
sL4218568L
(F2.0
L4218573L
tp3769
sL4315314L
(F4.0
L4315336L
tp3770
sL4224030L
(F512.0
L4224037L
tp3771
sL4336983L
(F1318.2358354191992
L4336990L
tp3772
sL4324359L
(F279620.26666666666
L4324370L
tp3773
sL4307129L
(F1.0
L4307137L
tp3774
sL4217018L
(F4.0
L4217037L
tp3775
sL4326431L
(F780.1904761904761
L4326453L
tp3776
sL4289443L
(F8.0
L4289458L
tp3777
sL4266174L
(F1.0
L4266176L
tp3778
sL4319605L
(F4095.000244081035
L4319620L
tp3779
sL4274368L
(F37449.142857142855
L4274378L
tp3780
sL4307137L
(F2.0
L4307159L
tp3781
sL4290754L
(F4.0
L4290934L
tp3782
sL4274550L
(F16384.0
L4274568L
tp3783
sL4323526L
(F8.0
L4323533L
tp3784
sL4249799L
(F4.0
L4249818L
tp3785
sL4315336L
(F8.0
L4315343L
tp3786
sL4337356L
(F682.6666666666666
L4337372L
tp3787
sL4274378L
(F37449.142857142855
L4274386L
tp3788
sL4315511L
(F4.0
L4315516L
tp3789
sL4323533L
(F1.0
L4323546L
tp3790
sL4326542L
(F48.76190476190476
L4326568L
tp3791
sL4315343L
(F2.6666666666666665
L4315348L
tp3792
sL4296536L
(F5.333333333333333
L4296561L
tp3793
sL4225233L
(F131072.0
L4225289L
tp3794
sL4274386L
(F18724.571428571428
L4274413L
tp3795
sL4264995L
(F128.0
L4265014L
tp3796
sL4315348L
(F2.0
L4315349L
tp3797
sL4315349L
(F1.0
L4315351L
tp3798
sL4208854L
(F4.0
L4208895L
tp3799
sL4315351L
(F1.0
L4315398L
tp3800
sL4323546L
(F2.0
L4323579L
tp3801
sL4331739L
(F64280.52107279693
L4331749L
tp3802
sL4322590L
(F1.2307692307692308
L4322615L
tp3803
sL4258013L
(F2.0
L4258018L
tp3804
sL4285477L
(F2.2857142857142856
L4285496L
tp3805
sL4241632L
(F137438953472.0
L4241706L
tp3806
sL6477160L
(F1.0
L6477164L
tp3807
sL4258018L
(F2.0
L4258020L
tp3808
sL4266211L
(F2.0
L4266221L
tp3809
sL4284807L
(F2.0
L4284817L
tp3810
sL4331749L
(F10713.42017879949
L4331758L
tp3811
sL4217062L
(F2.0
L4217079L
tp3812
sL4312631L
(F2.0
L4312642L
tp3813
sL4318247L
(F4.0
L4318298L
tp3814
sL4274413L
(F8738.133333333333
L4274441L
tp3815
sL4331758L
(F21426.84035759898
L4331783L
tp3816
sL4215848L
(F40.0
L4215905L
tp3817
sL4282610L
(F3825.174646602827
L4282638L
tp3818
sL4234831L
(F8388608.0
L4234912L
tp3819
sL4307189L
(F8.0
L4307196L
tp3820
sL4217079L
(F2.0
L4217084L
tp3821
sL4323579L
(F1.6
L4323581L
tp3822
sL4307196L
(F8.0
L4307226L
tp3823
sL4323581L
(F1.0
L4323650L
tp3824
sL4208895L
(F8.0
L4208925L
tp3825
sL4311233L
(F7.876923076923077
L4311292L
tp3826
sL4315398L
(F2.0
L4315405L
tp3827
sL4331783L
(F42853.68071519796
L4331799L
tp3828
sL4335273L
(F10.666666666666666
L4335298L
tp3829
sL4255075L
(F2.0
L4255087L
tp3830
sL4217100L
(F1.0
L4217115L
tp3831
sL4315405L
(F2.0
L4315423L
tp3832
sL4249870L
(F1.0
L4249877L
tp3833
sL4320543L
(F512.0
L4320558L
tp3834
sL4233491L
(F2097152.0
L4233551L
tp3835
sL4299028L
(F16.0
L4299032L
tp3836
sL4334638L
(F1820.4444444444443
L4334645L
tp3837
sL4331799L
(F28569.12047679864
L4331854L
tp3838
sL4299032L
(F32.0
L4299085L
tp3839
sL4307226L
(F16.0
L4307233L
tp3840
sL4217115L
(F2.0
L4217125L
tp3841
sL4333785L
(F10.666666666666666
L4333800L
tp3842
sL4230874L
(F256.0
L4230883L
tp3843
sL4315423L
(F4.0
L4315445L
tp3844
sL4289584L
(F16.0
L4289624L
tp3845
sL6477276L
(F1.0
L6477280L
tp3846
sL4267739L
(F780.1904761904761
L4267765L
tp3847
sL4249892L
(F2.0
L4249904L
tp3848
sL4217125L
(F2.0
L4217130L
tp3849
sL4310033L
(F35.177670424047236
L4310049L
tp3850
sL4322353L
(F1.0
L4322390L
tp3851
sL4223706L
(F32.0
L4223756L
tp3852
sL4208937L
(F4.0
L4208969L
tp3853
sL4309087L
(F4.0
L4309103L
tp3854
sL4217132L
(F1.0
L4217147L
tp3855
sL4280029L
(F1.0
L4280097L
tp3856
sL4249904L
(F1.0
L4249907L
tp3857
sL4241713L
(F137438953472.0
L4241773L
tp3858
sL4249907L
(F1.0
L4250084L
tp3859
sL4282676L
(F5100.2328621371025
L4282698L
tp3860
sL4315445L
(F8.0
L4315452L
tp3861
sL4209377L
(F2.0
L4209398L
tp3862
sL4217147L
(F2.0
L4217157L
tp3863
sL4315452L
(F2.6666666666666665
L4315457L
tp3864
sL4334645L
(F910.2222222222222
L4334652L
tp3865
sL4315457L
(F2.0
L4315458L
tp3866
sL4323650L
(F2.0
L4323675L
tp3867
sL4307267L
(F2.0
L4307283L
tp3868
sL4315460L
(F1.0
L4315506L
tp3869
sL4265014L
(F256.0
L4265052L
tp3870
sL4320017L
(F32.0
L4320024L
tp3871
sL4333545L
(F2.3885078191677134
L4333550L
tp3872
sL4295052L
(F2.0
L4295059L
tp3873
sL4282698L
(F15300.698586411308
L4282799L
tp3874
sL4217164L
(F1.0
L4217193L
tp3875
sL4299085L
(F8.0
L4299088L
tp3876
sL4331854L
(F85707.36143039592
L4331864L
tp3877
sL4233551L
(F262144.0
L4233624L
tp3878
sL4299088L
(F16.0
L4299091L
tp3879
sL4307283L
(F4.0
L4307288L
tp3880
sL4299092L
(F4.571428571428571
L4299127L
tp3881
sL4217230L
(F2.0
L4217241L
tp3882
sL4331864L
(F21426.84035759898
L4331889L
tp3883
sL4307290L
(F1.0
L4307339L
tp3884
sL4323675L
(F4.0
L4323691L
tp3885
sL4225635L
(F262144.0
L4225654L
tp3886
sL4225377L
(F131072.0
L4225433L
tp3887
sL4281403L
(F240.94117647058823
L4281418L
tp3888
sL4274532L
(F4096.0
L4274544L
tp3889
sL4337382L
(F1365.3333333333333
L4337393L
tp3890
sL4325929L
(F292.57142857142856
L4325954L
tp3891
sL4334652L
(F455.1111111111111
L4334659L
tp3892
sL4310088L
(F140.71068169618894
L4310125L
tp3893
sL4323691L
(F2.6666666666666665
L4323739L
tp3894
sL4241773L
(F34359738368.0
L4241788L
tp3895
sL4209007L
(F2.0
L4209028L
tp3896
sL4274544L
(F8192.0
L4274550L
tp3897
sL4331889L
(F42853.68071519796
L4331905L
tp3898
sL4232782L
(F131072.0
L4232837L
tp3899
sL4319635L
(F4095.000244081035
L4319650L
tp3900
sL4290934L
(F8.0
L4291010L
tp3901
sL4333289L
(F17.430737942301747
L4333323L
tp3902
sL4266360L
(F1.0
L4266362L
tp3903
sL4217209L
(F1.0
L4217215L
tp3904
sL4266362L
(F1.0
L4266448L
tp3905
sL4315516L
(F8.0
L4315521L
tp3906
sL4217215L
(F1.0
L4217230L
tp3907
sL4285085L
(F2.0
L4285184L
tp3908
sL4331905L
(F28569.12047679864
L4331960L
tp3909
sL4241795L
(F68719476736.0
L4241850L
tp3910
sL4209028L
(F4.0
L4209069L
tp3911
sL4315526L
(F8.0
L4315535L
tp3912
sL4274568L
(F32768.0
L4274602L
tp3913
sL4218543L
(F1.0
L4218558L
tp3914
sL4307339L
(F2.0
L4307349L
tp3915
sL4299149L
(F1.0
L4299279L
tp3916
sL4265625L
(F1024.0
L4265630L
tp3917
sL4315535L
(F16.0
L4315540L
tp3918
sL4233624L
(F524288.0
L4233631L
tp3919
sL4334659L
(F227.55555555555554
L4334664L
tp3920
sL4315540L
(F8.0
L4315560L
tp3921
sL4307349L
(F2.0
L4307367L
tp3922
sL4270489L
(F36.000000000000014
L4270526L
tp3923
sL4303635L
(F85.33333333333333
L4303638L
tp3924
sL4225433L
(F65536.0
L4225455L
tp3925
sL4323739L
(F8.0
L4323749L
tp3926
sL4217246L
(F1.0
L4217248L
tp3927
sL4233631L
(F524288.0
L4233686L
tp3928
sL4217248L
(F1.0
L4217275L
tp3929
sL4330566L
(F2678.3550446998725
L4330617L
tp3930
sL4307367L
(F4.0
L4307372L
tp3931
sL4315560L
(F2.0
L4315574L
tp3932
sL4274602L
(F16384.0
L4274625L
tp3933
sL4307372L
(F8.0
L4307377L
tp3934
sL4314547L
(F5.333333333333333
L4314564L
tp3935
sL4225455L
(F65536.0
L4225470L
tp3936
sL4275609L
(F8.0
L4275614L
tp3937
sL4334664L
(F113.77777777777777
L4334690L
tp3938
sL4315574L
(F4.0
L4315584L
tp3939
sL4331960L
(F85707.36143039592
L4331970L
tp3940
sL4210469L
(F2.0
L4210494L
tp3941
sL4307386L
(F4.0
L4307395L
tp3942
sL4279919L
(F2.0
L4279966L
tp3943
sL4320659L
(F32768.0
L4320666L
tp3944
sL4326474L
(F390.0952380952381
L4326481L
tp3945
sL4225470L
(F131072.0
L4225484L
tp3946
sL4267765L
(F341.3333333333333
L4267778L
tp3947
sL4315584L
(F4.0
L4315646L
tp3948
sL4274625L
(F32768.0
L4274635L
tp3949
sL4291010L
(F4.0
L4291037L
tp3950
sL4307395L
(F8.0
L4307404L
tp3951
sL4300787L
(F4.0
L4300789L
tp3952
sL4311820L
(F12.8
L4311857L
tp3953
sL4292343L
(F1.0
L4292365L
tp3954
sL4307404L
(F16.0
L4307414L
tp3955
sL4334734L
(F910.2222222222222
L4334756L
tp3956
sL4266448L
(F2.0
L4266455L
tp3957
sL6477168L
(F1.0
L6477172L
tp3958
sL4327369L
(F64.0
L4327394L
tp3959
sL4331989L
(F28569.12047679864
L4332032L
tp3960
sL4233686L
(F131072.0
L4233714L
tp3961
sL4279905L
(F2.0
L4279919L
tp3962
sL4214522L
(F32.0
L4214551L
tp3963
sL4323749L
(F2.2857142857142856
L4323774L
tp3964
sL4282848L
(F15.058823529411764
L4282862L
tp3965
sL4338768L
(F1.0
L4338822L
tp3966
sL4217314L
(F4.0
L4217342L
tp3967
sL4250084L
(F2.0
L4250089L
tp3968
sL4266469L
(F1.0
L4266484L
tp3969
sL4326481L
(F195.04761904761904
L4326486L
tp3970
sL4337404L
(F2730.6666666666665
L4337411L
tp3971
sL4250091L
(F1.0
L4250179L
tp3972
sL4314194L
(F5.333333333333333
L4314241L
tp3973
sL4282862L
(F30.11764705882353
L4282898L
tp3974
sL4262312L
(F1.0
L4262315L
tp3975
sL4233714L
(F262144.0
L4233727L
tp3976
sL4266484L
(F2.0
L4266489L
tp3977
sL4246081L
(F4.0
L4246085L
tp3978
sL4209143L
(F1.3333333333333333
L4209148L
tp3979
sL4266489L
(F2.0
L4266491L
tp3980
sL4266491L
(F1.0
L4266541L
tp3981
sL4209148L
(F1.0
L4209150L
tp3982
sL4209150L
(F1.0
L4209185L
tp3983
sL4233727L
(F524288.0
L4233740L
tp3984
sL4225536L
(F524288.0
L4225543L
tp3985
sL4241923L
(F34359738368.0
L4241930L
tp3986
sL4217348L
(F8.0
L4217372L
tp3987
sL4338282L
(F256.0
L4338295L
tp3988
sL4321025L
(F8192.0
L4321030L
tp3989
sL4337191L
(F878.8238902794661
L4337213L
tp3990
sL4241930L
(F34359738368.0
L4241985L
tp3991
sL4233740L
(F1048576.0
L4233751L
tp3992
sL4264631L
(F64.0
L4264641L
tp3993
sL4315662L
(F16.0
L4315672L
tp3994
sL4209069L
(F8.0
L4209099L
tp3995
sL4332048L
(F57138.24095359728
L4332079L
tp3996
sL4320006L
(F512.0
L4320017L
tp3997
sL4330099L
(F16070.130268199233
L4330103L
tp3998
sL4233751L
(F1048576.0
L4233776L
tp3999
sL4315672L
(F16.0
L4315717L
tp4000
sL4268558L
(F50.0
L4268568L
tp4001
sL4282799L
(F30601.397172822617
L4282818L
tp4002
sL4217372L
(F1.1428571428571428
L4217377L
tp4003
sL4307486L
(F4.571428571428571
L4307503L
tp4004
sL4323872L
(F2.2857142857142856
L4323905L
tp4005
sL4217377L
(F1.0
L4217379L
tp4006
sL4217379L
(F1.0
L4217402L
tp4007
sL4307377L
(F16.0
L4307386L
tp4008
sL4299304L
(F2.0
L4299314L
tp4009
sL4218631L
(F2.0
L4218636L
tp4010
sL4307773L
(F4.0
L4307782L
tp4011
sL4266541L
(F2.0
L4266551L
tp4012
sL4209198L
(F4.0
L4209218L
tp4013
sL4307503L
(F9.142857142857142
L4307514L
tp4014
sL4233776L
(F1048576.0
L4233869L
tp4015
sL4282930L
(F2.136482030341105
L4282935L
tp4016
sL4274740L
(F32768.0
L4274751L
tp4017
sL4332086L
(F114276.48190719455
L4332091L
tp4018
sL4266551L
(F2.0
L4266586L
tp4019
sL4336052L
(F1188.8616780045352
L4336075L
tp4020
sL4307514L
(F18.285714285714285
L4307526L
tp4021
sL4332091L
(F114276.48190719455
L4332120L
tp4022
sL4266744L
(F2.0
L4266779L
tp4023
sL4299325L
(F2.0
L4299361L
tp4024
sL4225599L
(F131072.0
L4225621L
tp4025
sL4323905L
(F1.4883720930232558
L4323907L
tp4026
sL4209218L
(F2.0
L4209231L
tp4027
sL4333323L
(F34.86147588460349
L4333334L
tp4028
sL4315717L
(F16.0
L4315733L
tp4029
sL4307526L
(F54.85714285714286
L4307532L
tp4030
sL4215905L
(F80.0
L4216117L
tp4031
sL4250184L
(F2.0
L4250186L
tp4032
sL4333647L
(F2.0
L4333657L
tp4033
sL4307532L
(F54.85714285714286
L4307538L
tp4034
sL4209231L
(F4.0
L4209251L
tp4035
sL4217424L
(F4.0
L4217468L
tp4036
sL4307538L
(F18.285714285714285
L4307539L
tp4037
sL4306019L
(F2.0
L4306029L
tp4038
sL4225621L
(F131072.0
L4225635L
tp4039
sL4291159L
(F1.0
L4291215L
tp4040
sL4332120L
(F114276.48190719455
L4332130L
tp4041
sL4310461L
(F1.3333333333333333
L4310500L
tp4042
sL4266586L
(F4.0
L4266593L
tp4043
sL4315740L
(F32.0
L4315785L
tp4044
sL4241850L
(F17179869184.0
L4241923L
tp4045
sL4281445L
(F240.94117647058823
L4281451L
tp4046
sL4307552L
(F36.57142857142857
L4307557L
tp4047
sL4299361L
(F4.0
L4299390L
tp4048
sL4332130L
(F114276.48190719455
L4332134L
tp4049
sL4217275L
(F2.0
L4217314L
tp4050
sL4307557L
(F4.571428571428571
L4307574L
tp4051
sL4332134L
(F14284.56023839932
L4332144L
tp4052
sL4337425L
(F1365.3333333333333
L4337436L
tp4053
sL4242026L
(F30541989660.444443
L4242058L
tp4054
sL4274797L
(F10922.666666666666
L4274866L
tp4055
sL4250223L
(F2.0
L4250233L
tp4056
sL4222353L
(F24.0
L4222360L
tp4057
sL4209265L
(F4.0
L4209281L
tp4058
sL4282638L
(F7650.349293205654
L4282676L
tp4059
sL4323774L
(F4.571428571428571
L4323790L
tp4060
sL4307574L
(F9.142857142857142
L4307579L
tp4061
sL4250233L
(F2.0
L4250323L
tp4062
sL4274182L
(F74898.28571428571
L4274194L
tp4063
sL4265453L
(F512.0
L4265459L
tp4064
sL4332156L
(F8192.0
L4332171L
tp4065
sL4307581L
(F1.0
L4307646L
tp4066
sL4299390L
(F8.0
L4299426L
tp4067
sL4319680L
(F8190.00048816207
L4319695L
tp4068
sL4319305L
(F256.0
L4319316L
tp4069
sL4298460L
(F2.0
L4298470L
tp4070
sL4225669L
(F1048576.0
L4225676L
tp4071
sL4264641L
(F64.0
L4264652L
tp4072
sL4338350L
(F512.0
L4338381L
tp4073
sL4315785L
(F5.333333333333333
L4315792L
tp4074
sL4242058L
(F61083979320.888885
L4242069L
tp4075
sL4332171L
(F16384.0
L4332181L
tp4076
sL4225676L
(F1048576.0
L4225735L
tp4077
sL4331970L
(F14284.56023839932
L4331989L
tp4078
sL4291215L
(F2.0
L4291300L
tp4079
sL4315792L
(F2.1333333333333333
L4315802L
tp4080
sL4243224L
(F893571354637.0032
L4243231L
tp4081
sL4338014L
(F64.0
L4338036L
tp4082
sL4332181L
(F32768.0
L4332191L
tp4083
sL4207624L
(F1.0
L4207640L
tp4084
sL4321049L
(F16384.0
L4321055L
tp4085
sL4217496L
(F16.0
L4217503L
tp4086
sL4315646L
(F8.0
L4315662L
tp4087
sL4315802L
(F4.266666666666667
L4315809L
tp4088
sL4242076L
(F122167958641.77777
L4242081L
tp4089
sL4308281L
(F36.0
L4308305L
tp4090
sL4332191L
(F65536.0
L4332219L
tp4091
sL4315809L
(F4.266666666666667
L4315814L
tp4092
sL4216899L
(F4.0
L4216911L
tp4093
sL4284187L
(F2.0
L4284208L
tp4094
sL4249260L
(F2.0
L4249292L
tp4095
sL4315814L
(F1.0
L4315816L
tp4096
sL4315816L
(F1.0
L4315858L
tp4097
sL4327649L
(F64.0
L4327664L
tp4098
sL4324014L
(F8.0
L4324030L
tp4099
sL4217519L
(F2.0
L4217526L
tp4100
sL4336651L
(F164.7794794273999
L4336676L
tp4101
sL4299441L
(F4.0
L4299449L
tp4102
sL4250179L
(F2.0
L4250184L
tp4103
sL4266677L
(F16.0
L4266682L
tp4104
sL4217526L
(F1.3333333333333333
L4217531L
tp4105
sL4283063L
(F4.0
L4283104L
tp4106
sL4299449L
(F8.0
L4299624L
tp4107
sL4266682L
(F1.0
L4266684L
tp4108
sL4332219L
(F131072.0
L4332236L
tp4109
sL4266684L
(F1.0
L4266734L
tp4110
sL4217533L
(F1.0
L4217564L
tp4111
sL4324030L
(F5.333333333333333
L4324081L
tp4112
sL4274881L
(F16384.0
L4274896L
tp4113
sL4209099L
(F8.0
L4209111L
tp4114
sL4209349L
(F1.0
L4209355L
tp4115
sL4225735L
(F262144.0
L4225748L
tp4116
sL4225484L
(F262144.0
L4225536L
tp4117
sL4300099L
(F2.0
L4300124L
tp4118
sL4310135L
(F281.4213633923779
L4310146L
tp4119
sL4332236L
(F262144.0
L4332257L
tp4120
sL4267638L
(F682.6666666666666
L4267644L
tp4121
sL4321649L
(F1.3333333333333333
L4321651L
tp4122
sL4274896L
(F32768.0
L4274910L
tp4123
sL4315858L
(F2.0
L4315874L
tp4124
sL4312867L
(F2.4615384615384617
L4312871L
tp4125
sL4225748L
(F524288.0
L4225766L
tp4126
sL4323790L
(F4.571428571428571
L4323852L
tp4127
sL6477388L
(F1.0
L6477392L
tp4128
sL4330617L
(F8035.065134099616
L4330627L
tp4129
sL4307672L
(F4.0
L4307678L
tp4130
sL4248933L
(F5.333333333333333
L4248945L
tp4131
sL4250330L
(F4.0
L4250335L
tp4132
sL4217564L
(F2.0
L4217586L
tp4133
sL4282096L
(F8811.563025210084
L4282118L
tp4134
sL4307678L
(F8.0
L4307688L
tp4135
sL4250335L
(F2.0
L4250371L
tp4136
sL4283104L
(F4.0
L4283173L
tp4137
sL4327888L
(F170.66666666666666
L4327905L
tp4138
sL4315874L
(F4.0
L4315881L
tp4139
sL4291300L
(F2.0
L4291376L
tp4140
sL4225766L
(F1048576.0
L4225785L
tp4141
sL4307688L
(F8.0
L4307710L
tp4142
sL4315881L
(F1.3333333333333333
L4315886L
tp4143
sL4312871L
(F4.923076923076923
L4312878L
tp4144
sL4317831L
(F2.0
L4317848L
tp4145
sL4315886L
(F1.0
L4315895L
tp4146
sL4332273L
(F1048576.0
L4332283L
tp4147
sL4217586L
(F4.0
L4217630L
tp4148
sL4209398L
(F4.0
L4209414L
tp4149
sL4315895L
(F2.0
L4315906L
tp4150
sL4247666L
(F36.0
L4247705L
tp4151
sL4225785L
(F2097152.0
L4225837L
tp4152
sL4324091L
(F2.1333333333333333
L4324102L
tp4153
sL4307710L
(F4.0
L4307715L
tp4154
sL4209537L
(F2.0
L4209584L
tp4155
sL4315906L
(F4.0
L4315917L
tp4156
sL4307715L
(F1.0
L4307732L
tp4157
sL4283734L
(F128.0
L4283786L
tp4158
sL4307414L
(F2.2857142857142856
L4307479L
tp4159
sL4324102L
(F4.266666666666667
L4324117L
tp4160
sL4314241L
(F3.5555555555555554
L4314280L
tp4161
sL4332298L
(F2097152.0
L4332323L
tp4162
sL4274647L
(F65536.0
L4274740L
tp4163
sL4242188L
(F30541989660.444443
L4242261L
tp4164
sL4315917L
(F8.0
L4315939L
tp4165
sL4209422L
(F4.0
L4209431L
tp4166
sL4250383L
(F2.0
L4250481L
tp4167
sL4336496L
(F706696.0447138795
L4336542L
tp4168
sL4231633L
(F1024.0
L4231644L
tp4169
sL4307732L
(F2.0
L4307773L
tp4170
sL4299819L
(F16.0
L4299872L
tp4171
sL4274460L
(F8738.133333333333
L4274532L
tp4172
sL4209431L
(F2.0
L4209436L
tp4173
sL4326532L
(F73.14285714285714
L4326542L
tp4174
sL4274970L
(F32768.0
L4274977L
tp4175
sL4266779L
(F4.0
L4266789L
tp4176
sL4285809L
(F2.0
L4285817L
tp4177
sL4209438L
(F1.0
L4209475L
tp4178
sL4324128L
(F8.533333333333333
L4324143L
tp4179
sL4330108L
(F4017.532567049808
L4330117L
tp4180
sL4332323L
(F4194304.0
L4332339L
tp4181
sL4274981L
(F2.0
L4275008L
tp4182
sL4315945L
(F2.2857142857142856
L4315952L
tp4183
sL4225837L
(F4194304.0
L4225844L
tp4184
sL4324143L
(F8.533333333333333
L4324154L
tp4185
sL4315952L
(F1.1428571428571428
L4315963L
tp4186
sL4313196L
(F10.666666666666666
L4313206L
tp4187
sL4291378L
(F1.0
L4291447L
tp4188
sL4332339L
(F2796202.6666666665
L4332387L
tp4189
sL4225844L
(F4194304.0
L4225900L
tp4190
sL4293283L
(F8.533333333333333
L4293306L
tp4191
sL4322198L
(F56.888888888888886
L4322208L
tp4192
sL4296500L
(F2.0
L4296510L
tp4193
sL4324154L
(F17.066666666666666
L4324169L
tp4194
sL4315963L
(F2.2857142857142856
L4315970L
tp4195
sL4283197L
(F8.0
L4283238L
tp4196
sL4226893L
(F84215045.01960784
L4226947L
tp4197
sL4338133L
(F512.0
L4338149L
tp4198
sL4275008L
(F4.0
L4275022L
tp4199
sL4315970L
(F1.1428571428571428
L4315984L
tp4200
sL4209475L
(F1.0
L4209493L
tp4201
sL4321078L
(F26214.4
L4321092L
tp4202
sL4307782L
(F2.6666666666666665
L4307797L
tp4203
sL4327905L
(F128.0
L4327916L
tp4204
sL4266824L
(F8.0
L4266831L
tp4205
sL4324169L
(F17.066666666666666
L4324184L
tp4206
sL4229730L
(F4042322160.9411764
L4229780L
tp4207
sL4329279L
(F256.0
L4329310L
tp4208
sL4275022L
(F8.0
L4275050L
tp4209
sL4266831L
(F8.0
L4266866L
tp4210
sL4315984L
(F2.2857142857142856
L4315998L
tp4211
sL4213145L
(F1.0
L4213193L
tp4212
sL6477144L
(F1.0
L6477148L
tp4213
sL4209493L
(F1.0
L4209511L
tp4214
sL4210631L
(F2.0
L4210633L
tp4215
sL4324184L
(F34.13333333333333
L4324199L
tp4216
sL4313743L
(F21.333333333333332
L4313753L
tp4217
sL4217693L
(F6.4
L4217709L
tp4218
sL4315998L
(F4.571428571428571
L4316005L
tp4219
sL4332387L
(F8388608.0
L4332397L
tp4220
sL4299013L
(F64.0
L4299028L
tp4221
sL4316005L
(F1.1428571428571428
L4316015L
tp4222
sL4283238L
(F4.0
L4283248L
tp4223
sL4324199L
(F68.26666666666667
L4324214L
tp4224
sL4299624L
(F16.0
L4299672L
tp4225
sL4293196L
(F3.2
L4293206L
tp4226
sL4275050L
(F4.0
L4275055L
tp4227
sL4225900L
(F524288.0
L4225925L
tp4228
sL4256914L
(F2.0869565217391304
L4256919L
tp4229
sL4316015L
(F2.2857142857142856
L4316029L
tp4230
sL4307824L
(F16.0
L4307871L
tp4231
sL4250481L
(F1.0
L4250483L
tp4232
sL4266866L
(F16.0
L4266873L
tp4233
sL4250483L
(F1.0
L4250768L
tp4234
sL4210494L
(F2.0
L4210504L
tp4235
sL4324214L
(F136.53333333333333
L4324229L
tp4236
sL4312380L
(F18.204444444444444
L4312407L
tp4237
sL4217720L
(F1.3333333333333333
L4217725L
tp4238
sL4266873L
(F16.0
L4266908L
tp4239
sL4282374L
(F7650.349293205654
L4282389L
tp4240
sL4332411L
(F30840.470588235294
L4332436L
tp4241
sL4316029L
(F4.571428571428571
L4316043L
tp4242
sL4275070L
(F2.665717568818068
L4275075L
tp4243
sL4217727L
(F1.0
L4217754L
tp4244
sL4267644L
(F1365.3333333333333
L4267657L
tp4245
sL4275075L
(F2.665717568818068
L4275077L
tp4246
sL4275077L
(F1.0
L4275126L
tp4247
sL4288465L
(F1.0
L4288562L
tp4248
sL4281829L
(F3855.0588235294117
L4281853L
tp4249
sL4329566L
(F2048.0
L4329581L
tp4250
sL4263746L
(F16.0
L4263783L
tp4251
sL4225938L
(F2097152.0
L4225951L
tp4252
sL4242323L
(F12216795864.177778
L4242351L
tp4253
sL4332436L
(F61680.94117647059
L4332452L
tp4254
sL4291478L
(F2.0
L4291503L
tp4255
sL4299672L
(F10.666666666666666
L4299800L
tp4256
sL4316057L
(F6.095238095238095
L4316071L
tp4257
sL4217754L
(F2.0
L4217779L
tp4258
sL4266908L
(F32.0
L4266915L
tp4259
sL4307871L
(F10.666666666666666
L4307919L
tp4260
sL4234145L
(F262144.0
L4234173L
tp4261
sL4324259L
(F1092.2666666666667
L4324274L
tp4262
sL4332452L
(F61680.94117647059
L4332514L
tp4263
sL4226886L
(F168430090.03921568
L4226893L
tp4264
sL4316071L
(F5.224489795918367
L4316078L
tp4265
sL4266920L
(F1.0
L4266922L
tp4266
sL4266922L
(F1.0
L4266960L
tp4267
sL4334877L
(F682.6666666666666
L4334893L
tp4268
sL4311538L
(F13.653333333333334
L4311545L
tp4269
sL4316078L
(F2.2857142857142856
L4316094L
tp4270
sL4291503L
(F2.0
L4291516L
tp4271
sL4209584L
(F1.0
L4209591L
tp4272
sL4235080L
(F8388608.0
L4235095L
tp4273
sL4324274L
(F2184.5333333333333
L4324289L
tp4274
sL4217779L
(F4.0
L4217835L
tp4275
sL4275126L
(F2.0
L4275156L
tp4276
sL4325193L
(F9.142857142857142
L4325199L
tp4277
sL4212271L
(F2.0
L4212276L
tp4278
sL4291516L
(F4.0
L4291541L
tp4279
sL4234173L
(F524288.0
L4234186L
tp4280
sL4316094L
(F4.571428571428571
L4316108L
tp4281
sL4296561L
(F3.2
L4296584L
tp4282
sL4324289L
(F4369.066666666667
L4324304L
tp4283
sL4284235L
(F1.0
L4284246L
tp4284
sL4209604L
(F1.0
L4209634L
tp4285
sL4267811L
(F1365.3333333333333
L4267834L
tp4286
sL4328204L
(F682.6666666666666
L4328226L
tp4287
sL4323294L
(F2.1333333333333333
L4323321L
tp4288
sL4234186L
(F1048576.0
L4234201L
tp4289
sL4316108L
(F9.142857142857142
L4316122L
tp4290
sL4307919L
(F32.0
L4307934L
tp4291
sL4324304L
(F8738.133333333333
L4324315L
tp4292
sL4272072L
(F12.0
L4272096L
tp4293
sL4283348L
(F8.0
L4283488L
tp4294
sL4291541L
(F4.0
L4291548L
tp4295
sL4226007L
(F8388608.0
L4226015L
tp4296
sL4234201L
(F2097152.0
L4234214L
tp4297
sL4316122L
(F6.095238095238095
L4316129L
tp4298
sL4326568L
(F146.28571428571428
L4326574L
tp4299
sL4291548L
(F8.0
L4291573L
tp4300
sL4307934L
(F8.0
L4307938L
tp4301
sL4226015L
(F16777216.0
L4226029L
tp4302
sL4293829L
(F7.0091978609625665
L4293843L
tp4303
sL4316129L
(F2.2857142857142856
L4316135L
tp4304
sL4307938L
(F16.0
L4307945L
tp4305
sL4271739L
(F5.333333333333333
L4271746L
tp4306
sL4309383L
(F21.333333333333332
L4309393L
tp4307
sL4324326L
(F34952.53333333333
L4324337L
tp4308
sL4316135L
(F4.571428571428571
L4316146L
tp4309
sL4307945L
(F16.0
L4307946L
tp4310
sL4307946L
(F2.2857142857142856
L4307975L
tp4311
sL4217835L
(F8.0
L4217903L
tp4312
sL4332524L
(F58661.594405594406
L4332536L
tp4313
sL4226029L
(F33554432.0
L4226043L
tp4314
sL4245825L
(F8.0
L4245832L
tp4315
sL4314280L
(F10.666666666666666
L4314295L
tp4316
sL4288652L
(F4.0
L4288659L
tp4317
sL4321107L
(F32768.0
L4321122L
tp4318
sL4291573L
(F8.0
L4291647L
tp4319
sL4306089L
(F8.0
L4306097L
tp4320
sL4332536L
(F16384.0
L4332561L
tp4321
sL4316153L
(F1.1428571428571428
L4316159L
tp4322
sL4226043L
(F33554432.0
L4226055L
tp4323
sL4324348L
(F139810.13333333333
L4324359L
tp4324
sL4316159L
(F2.2857142857142856
L4316173L
tp4325
sL4278784L
(F21.333333333333332
L4278802L
tp4326
sL4249426L
(F2.0
L4249428L
tp4327
sL4319477L
(F63.98437881376617
L4319503L
tp4328
sL4268848L
(F400.0
L4268864L
tp4329
sL4264375L
(F16.516129032258064
L4264382L
tp4330
sL4267014L
(F4.0
L4267045L
tp4331
sL4307975L
(F1.3333333333333333
L4307977L
tp4332
sL4232364L
(F32768.0
L4232437L
tp4333
sL4234250L
(F4194304.0
L4234331L
tp4334
sL4279651L
(F2.0
L4279658L
tp4335
sL4327938L
(F512.0
L4327960L
tp4336
sL4209679L
(F1.0
L4209686L
tp4337
sL4332561L
(F32768.0
L4332577L
tp4338
sL4324370L
(F559240.5333333333
L4324381L
tp4339
sL4316180L
(F1.1428571428571428
L4316186L
tp4340
sL4318382L
(F16.0
L4318392L
tp4341
sL4209686L
(F2.0
L4209692L
tp4342
sL4218713L
(F2.0
L4218738L
tp4343
sL4299800L
(F32.0
L4299815L
tp4344
sL4316186L
(F2.2857142857142856
L4316192L
tp4345
sL4242459L
(F195468733826.84445
L4242466L
tp4346
sL4209692L
(F1.0
L4209740L
tp4347
sL4324381L
(F1118481.0666666667
L4324392L
tp4348
sL4284233L
(F2.0
L4284235L
tp4349
sL4316192L
(F1.5238095238095237
L4316206L
tp4350
sL4332577L
(F32768.0
L4332671L
tp4351
sL4242466L
(F97734366913.42223
L4242526L
tp4352
sL4300635L
(F8.0
L4300639L
tp4353
sL4267045L
(F8.0
L4267068L
tp4354
sL4275238L
(F2.0
L4275259L
tp4355
sL4306097L
(F2.0
L4306117L
tp4356
sL4324392L
(F2236962.1333333333
L4324403L
tp4357
sL4225543L
(F262144.0
L4225599L
tp4358
sL4331331L
(F64280.52107279693
L4331341L
tp4359
sL4316206L
(F3.0476190476190474
L4316220L
tp4360
sL4217903L
(F8.0
L4217915L
tp4361
sL4330117L
(F8035.065134099616
L4330126L
tp4362
sL4226097L
(F33554432.0
L4226104L
tp4363
sL4337755L
(F2.0
L4337768L
tp4364
sL4324403L
(F4473924.266666667
L4324414L
tp4365
sL4329310L
(F512.0
L4329317L
tp4366
sL4308022L
(F2.0
L4308069L
tp4367
sL4262740L
(F2.0
L4262745L
tp4368
sL4226731L
(F86931659.37507907
L4226778L
tp4369
sL4275259L
(F2.0
L4275281L
tp4370
sL4335516L
(F85.33333333333333
L4335531L
tp4371
sL4324414L
(F8947848.533333333
L4324425L
tp4372
sL4291647L
(F1.0
L4291670L
tp4373
sL4248984L
(F1.0
L4249260L
tp4374
sL4332079L
(F114276.48190719455
L4332086L
tp4375
sL4217402L
(F2.0
L4217424L
tp4376
sL4227006L
(F96245765.73669468
L4227013L
tp4377
sL4324425L
(F17895697.066666666
L4324436L
tp4378
sL4316234L
(F1.7414965986394557
L4316241L
tp4379
sL4322487L
(F1.0
L4322489L
tp4380
sL4209740L
(F2.0
L4209779L
tp4381
sL4267085L
(F16.0
L4267122L
tp4382
sL4316241L
(F1.1428571428571428
L4316247L
tp4383
sL4332846L
(F8.0
L4332857L
tp4384
sL4324436L
(F4.876191140518798
L4324461L
tp4385
sL4291670L
(F2.0
L4291695L
tp4386
sL4316247L
(F2.2857142857142856
L4316258L
tp4387
sL4320571L
(F2048.0
L4320578L
tp4388
sL4299279L
(F2.0
L4299304L
tp4389
sL4281530L
(F963.7647058823529
L4281570L
tp4390
sL4242526L
(F48867183456.71111
L4242599L
tp4391
sL4283488L
(F16.0
L4283529L
tp4392
sL4300261L
(F4.0
L4300269L
tp4393
sL4316258L
(F4.571428571428571
L4316264L
tp4394
sL4299875L
(F8.0
L4299878L
tp4395
sL4308069L
(F1.3333333333333333
L4308114L
tp4396
sL4299878L
(F16.0
L4299879L
tp4397
sL4299879L
(F2.2857142857142856
L4299947L
tp4398
sL4316264L
(F9.142857142857142
L4316294L
tp4399
sL4234345L
(F16777216.0
L4234363L
tp4400
sL4286143L
(F32.0
L4286198L
tp4401
sL4282898L
(F15.058823529411764
L4282915L
tp4402
sL4291695L
(F2.0
L4291708L
tp4403
sL4267122L
(F32.0
L4267145L
tp4404
sL4323859L
(F1.1428571428571428
L4323872L
tp4405
sL4225098L
(F32768.0
L4225152L
tp4406
sL4326590L
(F585.1428571428571
L4326600L
tp4407
sL4325199L
(F18.285714285714285
L4325223L
tp4408
sL4217975L
(F1.0
L4217977L
tp4409
sL4217977L
(F1.0
L4217996L
tp4410
sL4226170L
(F986895.0588235294
L4226179L
tp4411
sL4234363L
(F11184810.666666666
L4234437L
tp4412
sL4291708L
(F4.0
L4291733L
tp4413
sL4324477L
(F9.752382281037596
L4324542L
tp4414
sL4332671L
(F65536.0
L4332678L
tp4415
sL4226179L
(F1973790.1176470588
L4226225L
tp4416
sL4332678L
(F2.0
L4332695L
tp4417
sL4283529L
(F32.0
L4283554L
tp4418
sL4311298L
(F6.4
L4311335L
tp4419
sL4307479L
(F4.571428571428571
L4307486L
tp4420
sL4217996L
(F2.0
L4218023L
tp4421
sL4277531L
(F1.6
L4277600L
tp4422
sL4326574L
(F292.57142857142856
L4326590L
tp4423
sL4250768L
(F1.0
L4250878L
tp4424
sL4327960L
(F1024.0
L4327982L
tp4425
sL4308114L
(F4.0
L4308129L
tp4426
sL4291733L
(F4.0
L4291740L
tp4427
sL4267158L
(F42.666666666666664
L4267191L
tp4428
sL4332695L
(F4.0
L4332732L
tp4429
sL4316312L
(F1.0
L4316314L
tp4430
sL4316314L
(F1.0
L4316342L
tp4431
sL4291740L
(F8.0
L4291765L
tp4432
sL4337213L
(F1757.6477805589323
L4337235L
tp4433
sL4334789L
(F113.77777777777777
L4334835L
tp4434
sL4308129L
(F1.0
L4308133L
tp4435
sL4283554L
(F32.0
L4283584L
tp4436
sL4303934L
(F8.0
L4303954L
tp4437
sL4308133L
(F2.0
L4308140L
tp4438
sL4242599L
(F97734366913.42223
L4242606L
tp4439
sL4299947L
(F2.0
L4299962L
tp4440
sL4308140L
(F2.0
L4308154L
tp4441
sL4242606L
(F48867183456.71111
L4242661L
tp4442
sL4209840L
(F1.0
L4209842L
tp4443
sL4218033L
(F1.3333333333333333
L4218038L
tp4444
sL4209842L
(F1.0
L4209890L
tp4445
sL4276083L
(F4.0
L4276094L
tp4446
sL4291765L
(F8.0
L4291804L
tp4447
sL4316342L
(F2.0
L4316349L
tp4448
sL4267191L
(F85.33333333333333
L4267214L
tp4449
sL4218040L
(F1.0
L4218055L
tp4450
sL4292468L
(F4.0
L4292480L
tp4451
sL4308154L
(F4.0
L4308160L
tp4452
sL4311583L
(F1.0
L4311585L
tp4453
sL4332732L
(F8.0
L4332739L
tp4454
sL4316349L
(F2.0
L4316363L
tp4455
sL4217130L
(F1.0
L4217132L
tp4456
sL4299967L
(F4.0
L4299969L
tp4457
sL4308160L
(F8.0
L4308172L
tp4458
sL4299969L
(F1.0
L4300099L
tp4459
sL4332739L
(F8.0
L4332772L
tp4460
sL4234437L
(F22369621.333333332
L4234444L
tp4461
sL4322969L
(F1.426183844011142
L4322971L
tp4462
sL4209185L
(F2.0
L4209198L
tp4463
sL4324552L
(F35791394.13333333
L4324595L
tp4464
sL4316363L
(F4.0
L4316370L
tp4465
sL4308172L
(F8.0
L4308177L
tp4466
sL4267214L
(F42.666666666666664
L4267226L
tp4467
sL4308177L
(F4.0
L4308189L
tp4468
sL4316370L
(F4.0
L4316375L
tp4469
sL4336163L
(F38043.573696145126
L4336191L
tp4470
sL4241985L
(F7635497415.111111
L4242013L
tp4471
sL4332032L
(F57138.24095359728
L4332048L
tp4472
sL4316375L
(F2.0
L4316407L
tp4473
sL4267226L
(F85.33333333333333
L4267257L
tp4474
sL4291804L
(F1.0
L4291831L
tp4475
sL4308189L
(F4.0
L4308195L
tp4476
sL4268904L
(F800.0
L4268968L
tp4477
sL4242863L
(F223392838659.2508
L4242870L
tp4478
sL4328643L
(F2.0
L4328660L
tp4479
sL4308195L
(F8.0
L4308227L
tp4480
sL4332772L
(F1.2350852318247614
L4332774L
tp4481
sL4242661L
(F13962052416.203175
L4242689L
tp4482
sL4332774L
(F1.0
L4332824L
tp4483
sL4222374L
(F24.0
L4222381L
tp4484
sL4275432L
(F2.0
L4275456L
tp4485
sL4218089L
(F1.0
L4218091L
tp4486
sL4259050L
(F2.0
L4259055L
tp4487
sL4218091L
(F1.0
L4218106L
tp4488
sL4259055L
(F2.0
L4259057L
tp4489
sL4226288L
(F1973790.1176470588
L4226301L
tp4490
sL4259057L
(F1.0
L4259658L
tp4491
sL4296844L
(F136.53333333333333
L4296869L
tp4492
sL4337263L
(F439.41194513973306
L4337268L
tp4493
sL4283636L
(F128.0
L4283679L
tp4494
sL4276094L
(F4.0
L4276119L
tp4495
sL4316407L
(F4.0
L4316414L
tp4496
sL4267257L
(F170.66666666666666
L4267280L
tp4497
sL4218106L
(F2.0
L4218125L
tp4498
sL4292036L
(F4.0
L4292049L
tp4499
sL4226301L
(F3947580.2352941176
L4226316L
tp4500
sL4316414L
(F4.0
L4316451L
tp4501
sL4269668L
(F50.0
L4269669L
tp4502
sL4275456L
(F4.0
L4275468L
tp4503
sL4242689L
(F27924104832.40635
L4242702L
tp4504
sL4308227L
(F2.0
L4308232L
tp4505
sL4214730L
(F2.0
L4214735L
tp4506
sL4314295L
(F2.6666666666666665
L4314299L
tp4507
sL4308232L
(F1.0
L4308234L
tp4508
sL4209929L
(F4.0
L4209985L
tp4509
sL4308234L
(F1.0
L4308269L
tp4510
sL4275468L
(F4.0
L4275473L
tp4511
sL4218125L
(F4.0
L4218135L
tp4512
sL4242702L
(F55848209664.8127
L4242766L
tp4513
sL4291856L
(F2.0
L4291869L
tp4514
sL4275473L
(F2.0
L4275494L
tp4515
sL4325760L
(F73.14285714285714
L4325799L
tp4516
sL4327982L
(F2048.0
L4327989L
tp4517
sL4218135L
(F1.3333333333333333
L4218140L
tp4518
sL4332824L
(F2.0
L4332835L
tp4519
sL4333117L
(F14.928473804100229
L4333128L
tp4520
sL4312222L
(F36.40888888888889
L4312261L
tp4521
sL4301529L
(F8.0
L4301569L
tp4522
sL4218140L
(F1.0
L4218142L
tp4523
sL4291869L
(F4.0
L4291894L
tp4524
sL4250910L
(F4.0
L4250920L
tp4525
sL4283679L
(F256.0
L4283734L
tp4526
sL4234529L
(F4194304.0
L4234536L
tp4527
sL4332835L
(F4.0
L4332846L
tp4528
sL4316453L
(F1.0
L4316481L
tp4529
sL4275494L
(F4.0
L4275505L
tp4530
sL4319793L
(F4095.000244081035
L4319808L
tp4531
sL4250920L
(F4.0
L4250960L
tp4532
sL4267307L
(F682.6666666666666
L4267348L
tp4533
sL4308269L
(F2.0
L4308281L
tp4534
sL4249428L
(F1.0
L4249619L
tp4535
sL4275505L
(F4.0
L4275530L
tp4536
sL4320851L
(F32768.0
L4320870L
tp4537
sL4226356L
(F15790320.94117647
L4226371L
tp4538
sL4291894L
(F4.0
L4291901L
tp4539
sL4220740L
(F4.0
L4220748L
tp4540
sL4332857L
(F16.0
L4332872L
tp4541
sL4337491L
(F21845.333333333332
L4337501L
tp4542
sL4218171L
(F1.0
L4218173L
tp4543
sL4273160L
(F512.0
L4273170L
tp4544
sL4291901L
(F8.0
L4291926L
tp4545
sL4323852L
(F9.142857142857142
L4323859L
tp4546
sL4316481L
(F2.0
L4316497L
tp4547
sL4214667L
(F3.5555555555555554
L4214668L
tp4548
sL4273933L
(F4096.0
L4273939L
tp4549
sL4288163L
(F8.0
L4288266L
tp4550
sL4209990L
(F1.0
L4209992L
tp4551
sL4326625L
(F585.1428571428571
L4326641L
tp4552
sL4209992L
(F1.0
L4210026L
tp4553
sL4324682L
(F143165576.53333333
L4324684L
tp4554
sL4282935L
(F2.136482030341105
L4282937L
tp4555
sL4324684L
(F143165576.53333333
L4324694L
tp4556
sL4242766L
(F111696419329.6254
L4242781L
tp4557
sL4329581L
(F4096.0
L4329600L
tp4558
sL4250960L
(F8.0
L4250993L
tp4559
sL4308305L
(F36.0
L4308334L
tp4560
sL4308949L
(F2.0
L4308963L
tp4561
sL4293524L
(F1092.2666666666667
L4293559L
tp4562
sL4223196L
(F21.333333333333332
L4223213L
tp4563
sL4291926L
(F8.0
L4291953L
tp4564
sL4282937L
(F1.0
L4283006L
tp4565
sL4316507L
(F1.3333333333333333
L4316527L
tp4566
sL4336401L
(F88337.00558923493
L4336416L
tp4567
sL4237882L
(F268435456.0
L4237889L
tp4568
sL4234591L
(F1048576.0
L4234664L
tp4569
sL4217468L
(F8.0
L4217487L
tp4570
sL4332898L
(F42.666666666666664
L4332913L
tp4571
sL4275555L
(F2.0
L4275573L
tp4572
sL4242788L
(F111696419329.6254
L4242838L
tp4573
sL4318438L
(F8.0
L4318448L
tp4574
sL4324710L
(F143165576.53333333
L4324751L
tp4575
sL4218216L
(F1.3333333333333333
L4218221L
tp4576
sL4336947L
(F1318.2358354191992
L4336969L
tp4577
sL4210026L
(F2.0
L4210044L
tp4578
sL4267371L
(F85.33333333333333
L4267383L
tp4579
sL4312978L
(F2.6666666666666665
L4312983L
tp4580
sL4308334L
(F36.0
L4308363L
tp4581
sL4316527L
(F2.6666666666666665
L4316568L
tp4582
sL4246929L
(F8.0
L4246934L
tp4583
sL4332913L
(F12.19047619047619
L4332924L
tp4584
sL4321388L
(F8.0
L4321394L
tp4585
sL4279663L
(F1.0
L4279691L
tp4586
sL4249770L
(F2.0
L4249799L
tp4587
sL4275573L
(F4.0
L4275597L
tp4588
sL4267383L
(F170.66666666666666
L4267414L
tp4589
sL4225925L
(F1048576.0
L4225938L
tp4590
sL4218772L
(F2.0
L4218801L
tp4591
sL4227289L
(F7895160.470588235
L4227304L
tp4592
sL4264933L
(F128.0
L4264952L
tp4593
sL4332924L
(F24.38095238095238
L4332939L
tp4594
sL4314346L
(F1.0
L4314439L
tp4595
sL4321279L
(F26214.4
L4321296L
tp4596
sL4210050L
(F1.0
L4210137L
tp4597
sL4249865L
(F1.3333333333333333
L4249870L
tp4598
sL4226437L
(F15790320.94117647
L4226446L
tp4599
sL4242838L
(F55848209664.8127
L4242848L
tp4600
sL4291975L
(F2.0
L4292000L
tp4601
sL4283786L
(F32.0
L4283809L
tp4602
sL4308363L
(F36.0
L4308387L
tp4603
sL4218252L
(F2.0
L4218268L
tp4604
sL4275597L
(F8.0
L4275609L
tp4605
sL4226446L
(F31580641.88235294
L4226461L
tp4606
sL4324751L
(F286331153.06666666
L4324758L
tp4607
sL4272024L
(F12.0
L4272048L
tp4608
sL4252113L
(F4.0
L4252126L
tp4609
sL4224562L
(F1024.0
L4224573L
tp4610
sL4300181L
(F4.0
L4300210L
tp4611
sL4267414L
(F341.3333333333333
L4267437L
tp4612
sL4314921L
(F1.0
L4314923L
tp4613
sL4316568L
(F5.333333333333333
L4316578L
tp4614
sL4337646L
(F5.333333333333333
L4337663L
tp4615
sL4332954L
(F1.0773277222514466
L4333010L
tp4616
sL4324763L
(F286331153.06666666
L4324815L
tp4617
sL4218268L
(F1.0
L4218274L
tp4618
sL4226461L
(F63161283.76470588
L4226476L
tp4619
sL4275614L
(F4.0
L4275635L
tp4620
sL4336676L
(F329.5589588547998
L4336696L
tp4621
sL4292000L
(F2.0
L4292011L
tp4622
sL4220144L
(F8.533333333333333
L4220158L
tp4623
sL4316578L
(F5.333333333333333
L4316598L
tp4624
sL4308387L
(F36.0
L4308411L
tp4625
sL4310859L
(F2.0
L4310876L
tp4626
sL4326641L
(F585.1428571428571
L4326731L
tp4627
sL4234664L
(F2097152.0
L4234671L
tp4628
sL4267932L
(F1747.6266666666668
L4267952L
tp4629
sL4251050L
(F1.4545454545454546
L4251055L
tp4630
sL4292011L
(F4.0
L4292036L
tp4631
sL4226476L
(F126322567.52941176
L4226483L
tp4632
sL4267437L
(F341.3333333333333
L4267447L
tp4633
sL4251055L
(F1.0
L4251070L
tp4634
sL4283824L
(F12.8
L4283854L
tp4635
sL4300210L
(F8.0
L4300246L
tp4636
sL4275635L
(F8.0
L4275646L
tp4637
sL4276119L
(F2.0
L4276151L
tp4638
sL4316598L
(F10.666666666666666
L4316645L
tp4639
sL4267447L
(F682.6666666666666
L4267464L
tp4640
sL4329190L
(F128.0
L4329251L
tp4641
sL4308411L
(F36.0
L4308440L
tp4642
sL4250186L
(F1.0
L4250223L
tp4643
sL4275646L
(F8.0
L4275671L
tp4644
sL4218303L
(F2.0
L4218319L
tp4645
sL4231971L
(F65536.0
L4232026L
tp4646
sL4251075L
(F2.0
L4251077L
tp4647
sL4320704L
(F8192.0
L4320711L
tp4648
sL4251077L
(F1.0
L4251240L
tp4649
sL4265395L
(F512.0
L4265433L
tp4650
sL4214689L
(F2.0
L4214698L
tp4651
sL4267464L
(F1365.3333333333333
L4267505L
tp4652
sL4246092L
(F2.0
L4246099L
tp4653
sL4283854L
(F25.6
L4283879L
tp4654
sL4324815L
(F572662306.1333333
L4324817L
tp4655
sL4324817L
(F286331153.06666666
L4324827L
tp4656
sL4333010L
(F2.154655444502893
L4333020L
tp4657
sL4247459L
(F36.0
L4247501L
tp4658
sL4218325L
(F1.0
L4218340L
tp4659
sL4300246L
(F8.0
L4300261L
tp4660
sL4217241L
(F2.0
L4217246L
tp4661
sL4308440L
(F36.0
L4308469L
tp4662
sL4210137L
(F2.0
L4210142L
tp4663
sL4328015L
(F170.66666666666666
L4328057L
tp4664
sL4333020L
(F1.8660592255125286
L4333055L
tp4665
sL4210142L
(F2.0
L4210144L
tp4666
sL4296613L
(F6.4
L4296628L
tp4667
sL4210144L
(F1.0
L4210239L
tp4668
sL4218340L
(F2.0
L4218349L
tp4669
sL4316645L
(F21.333333333333332
L4316655L
tp4670
sL4234726L
(F524288.0
L4234754L
tp4671
sL4292071L
(F2.0
L4292096L
tp4672
sL4242920L
(F55848209664.8127
L4242934L
tp4673
sL4226537L
(F21053761.25490196
L4226562L
tp4674
sL4304763L
(F1.0
L4304765L
tp4675
sL4300269L
(F8.0
L4300444L
tp4676
sL4324949L
(F2.1333333333333333
L4324982L
tp4677
sL4334845L
(F56.888888888888886
L4334871L
tp4678
sL4267505L
(F2730.6666666666665
L4267528L
tp4679
sL4218354L
(F1.0
L4218356L
tp4680
sL4307539L
(F18.285714285714285
L4307545L
tp4681
sL4218356L
(F1.0
L4218379L
tp4682
sL4308469L
(F36.0
L4308498L
tp4683
sL4242934L
(F111696419329.6254
L4242948L
tp4684
sL4275705L
(F1.0
L4275776L
tp4685
sL4273407L
(F65536.0
L4273436L
tp4686
sL4283900L
(F1.003921568627451
L4283915L
tp4687
sL4217931L
(F1.1428571428571428
L4217933L
tp4688
sL4333055L
(F3.732118451025057
L4333068L
tp4689
sL4292096L
(F2.0
L4292116L
tp4690
sL4226562L
(F42107522.50980392
L4226571L
tp4691
sL4242948L
(F223392838659.2508
L4242982L
tp4692
sL4246934L
(F16.0
L4246936L
tp4693
sL4267528L
(F170.66666666666666
L4267540L
tp4694
sL4317312L
(F2.0
L4317323L
tp4695
sL4283915L
(F2.007843137254902
L4283920L
tp4696
sL4333068L
(F3.732118451025057
L4333102L
tp4697
sL4240933L
(F2147483648.0
L4240961L
tp4698
sL4234767L
(F2097152.0
L4234782L
tp4699
sL4283920L
(F2.007843137254902
L4283922L
tp4700
sL4284400L
(F4.0
L4284406L
tp4701
sL4308498L
(F36.0
L4308527L
tp4702
sL4324884L
(F1145324612.2666667
L4324891L
tp4703
sL4276395L
(F2.0
L4276531L
tp4704
sL4307545L
(F36.57142857142857
L4307552L
tp4705
sL4325496L
(F73.14285714285714
L4325511L
tp4706
sL4306232L
(F8.0
L4306239L
tp4707
sL4316699L
(F5.333333333333333
L4316742L
tp4708
sL4234782L
(F4194304.0
L4234795L
tp4709
sL4324896L
(F1145324612.2666667
L4324925L
tp4710
sL4321200L
(F1398101.3333333333
L4321215L
tp4711
sL4295259L
(F8.0
L4295262L
tp4712
sL4218404L
(F2.0
L4218409L
tp4713
sL4242982L
(F446785677318.5016
L4243055L
tp4714
sL4304765L
(F1.0
L4304881L
tp4715
sL4218409L
(F1.0
L4218411L
tp4716
sL4292138L
(F2.0
L4292163L
tp4717
sL4234795L
(F8388608.0
L4234806L
tp4718
sL4309005L
(F2.0
L4309087L
tp4719
sL4333102L
(F7.464236902050114
L4333117L
tp4720
sL4242013L
(F15270994830.222221
L4242026L
tp4721
sL4230023L
(F2870967.443850267
L4230063L
tp4722
sL4319838L
(F16380.00097632414
L4319853L
tp4723
sL4234806L
(F8388608.0
L4234831L
tp4724
sL4296628L
(F3.2
L4296636L
tp4725
sL4226618L
(F56143363.34640523
L4226625L
tp4726
sL4311647L
(F4.0
L4311657L
tp4727
sL4324925L
(F1145324612.2666667
L4324932L
tp4728
sL4218430L
(F2.0
L4218448L
tp4729
sL4210239L
(F2.0
L4210244L
tp4730
sL4275776L
(F2.0
L4275787L
tp4731
sL4226625L
(F28071681.673202615
L4226686L
tp4732
sL4246936L
(F8.0
L4246950L
tp4733
sL4234536L
(F4194304.0
L4234591L
tp4734
sL4324932L
(F1.0666666666666667
L4324949L
tp4735
sL4329398L
(F16.0
L4329409L
tp4736
sL4316742L
(F10.666666666666666
L4316749L
tp4737
sL4266593L
(F4.0
L4266628L
tp4738
sL4333128L
(F29.856947608200457
L4333139L
tp4739
sL4292169L
(F4.0
L4292175L
tp4740
sL4275787L
(F2.0
L4275812L
tp4741
sL4308556L
(F36.0
L4308585L
tp4742
sL4316749L
(F10.666666666666666
L4316786L
tp4743
sL4269325L
(F50.0
L4269356L
tp4744
sL4218448L
(F2.0
L4218453L
tp4745
sL4243384L
(F3574285418548.0127
L4243420L
tp4746
sL4209251L
(F2.0
L4209265L
tp4747
sL4292180L
(F2.6666666666666665
L4292185L
tp4748
sL4254340L
(F16.0
L4254347L
tp4749
sL4283991L
(F2.0
L4283998L
tp4750
sL4292185L
(F2.0
L4292198L
tp4751
sL4281853L
(F7710.117647058823
L4282017L
tp4752
sL4233025L
(F524288.0
L4233032L
tp4753
sL4333154L
(F39.80926347760061
L4333165L
tp4754
sL4275812L
(F1.0
L4275873L
tp4755
sL4274635L
(F32768.0
L4274647L
tp4756
sL4292198L
(F1.0
L4292220L
tp4757
sL4251240L
(F2.0
L4251272L
tp4758
sL4308585L
(F36.0
L4308614L
tp4759
sL4218474L
(F2.0
L4218492L
tp4760
sL4299962L
(F4.0
L4299967L
tp4761
sL4321226L
(F798915.0476190476
L4321241L
tp4762
sL4333165L
(F79.61852695520122
L4333180L
tp4763
sL4316497L
(F4.0
L4316507L
tp4764
sL4243055L
(F893571354637.0032
L4243062L
tp4765
sL4316786L
(F21.333333333333332
L4316793L
tp4766
sL4210293L
(F1.0
L4210340L
tp4767
sL4324982L
(F1.7166806241841401
L4324984L
tp4768
sL4233227L
(F65536.0
L4233255L
tp4769
sL4246665L
(F1.0
L4246683L
tp4770
sL4316793L
(F5.333333333333333
L4316798L
tp4771
sL4321215L
(F399457.5238095238
L4321226L
tp4772
sL4333180L
(F159.23705391040244
L4333195L
tp4773
sL4316798L
(F1.0
L4316800L
tp4774
sL4265237L
(F128.0
L4265268L
tp4775
sL4316800L
(F1.0
L4316831L
tp4776
sL4214720L
(F2.0
L4214730L
tp4777
sL4284034L
(F4.0
L4284053L
tp4778
sL4297767L
(F8.0
L4297772L
tp4779
sL4252950L
(F40.0
L4252987L
tp4780
sL4308614L
(F36.0
L4308643L
tp4781
sL4263873L
(F2.0
L4263878L
tp4782
sL4251272L
(F4.0
L4251279L
tp4783
sL4267657L
(F2730.6666666666665
L4267692L
tp4784
sL4333195L
(F45.496301117257836
L4333206L
tp4785
sL4251279L
(F4.0
L4251311L
tp4786
sL4218497L
(F1.0
L4218499L
tp4787
sL4292245L
(F2.0
L4292273L
tp4788
sL4333206L
(F90.99260223451567
L4333221L
tp4789
sL4226713L
(F673720360.1568627
L4226722L
tp4790
sL4209295L
(F4.0
L4209311L
tp4791
sL4316831L
(F2.0
L4316843L
tp4792
sL4234912L
(F16777216.0
L4234926L
tp4793
sL4332144L
(F407.483493329933
L4332156L
tp4794
sL4312407L
(F36.40888888888889
L4312454L
tp4795
sL4308643L
(F36.0
L4308669L
tp4796
sL4210340L
(F1.0
L4210371L
tp4797
sL4263878L
(F2.0
L4263880L
tp4798
sL4284072L
(F16.0
L4284079L
tp4799
sL4308935L
(F8.0
L4308949L
tp4800
sL4275884L
(F2.0
L4275909L
tp4801
sL4218541L
(F1.0
L4218543L
tp4802
sL4218223L
(F1.0
L4218252L
tp4803
sL4284079L
(F5.333333333333333
L4284084L
tp4804
sL4292273L
(F1.0
L4292295L
tp4805
sL4333139L
(F59.713895216400914
L4333154L
tp4806
sL4299314L
(F4.0
L4299325L
tp4807
sL4333236L
(F51.99577270543753
L4333249L
tp4808
sL4248862L
(F16.0
L4248869L
tp4809
sL4210633L
(F1.0
L4210692L
tp4810
sL4308669L
(F36.0
L4308695L
tp4811
sL4218558L
(F2.0
L4218568L
tp4812
sL4246133L
(F2.0
L4246138L
tp4813
sL4226104L
(F16777216.0
L4226170L
tp4814
sL4333249L
(F8.715368971150873
L4333262L
tp4815
sL4251331L
(F2.0
L4251336L
tp4816
sL4284100L
(F2.0
L4284105L
tp4817
sL4225654L
(F524288.0
L4225669L
tp4818
sL4292295L
(F2.0
L4292320L
tp4819
sL4251336L
(F2.0
L4251338L
tp4820
sL4284105L
(F2.0
L4284107L
tp4821
sL4251338L
(F1.0
L4251451L
tp4822
sL4284107L
(F1.0
L4284187L
tp4823
sL4300492L
(F10.666666666666666
L4300620L
tp4824
sL4301150L
(F128.0
L4301279L
tp4825
sL4333262L
(F17.430737942301747
L4333289L
tp4826
sL4243151L
(F446785677318.5016
L4243224L
tp4827
sL4269309L
(F50.0
L4269325L
tp4828
sL4267982L
(F21.333333333333332
L4267995L
tp4829
sL4278905L
(F4.0
L4278910L
tp4830
sL4334777L
(F455.1111111111111
L4334784L
tp4831
sL4226778L
(F173863318.75015813
L4226785L
tp4832
sL4214735L
(F1.0
L4214737L
tp4833
sL4224573L
(F2048.0
L4224590L
tp4834
sL4271746L
(F16.0
L4271751L
tp4835
sL4292320L
(F2.0
L4292343L
tp4836
sL4226785L
(F86931659.37507907
L4226841L
tp4837
sL4307579L
(F1.0893617021276596
L4307581L
tp4838
sL4316900L
(F12.0
L4316957L
tp4839
sL4217952L
(F2.0
L4217970L
tp4840
sL4325095L
(F4.0
L4325111L
tp4841
sL4218600L
(F2.0
L4218605L
tp4842
sL4246140L
(F2.0
L4246147L
tp4843
sL4210410L
(F1.0
L4210469L
tp4844
sL4226483L
(F63161283.76470588
L4226537L
tp4845
sL4274910L
(F65536.0
L4274939L
tp4846
sL4218607L
(F1.0
L4218622L
tp4847
sL4308721L
(F36.0
L4308747L
tp4848
sL4218835L
(F2.0
L4218864L
tp4849
sL4295294L
(F1.0
L4295337L
tp4850
sL4325111L
(F2.6666666666666665
L4325162L
tp4851
sL4313971L
(F21.333333333333332
L4313975L
tp4852
sL4218622L
(F2.0
L4218631L
tp4853
sL4275967L
(F2.0
L4275984L
tp4854
sL4218573L
(F1.0
L4218575L
tp4855
sL4303954L
(F16.0
L4303966L
tp4856
sL4314047L
(F2.0
L4314084L
tp4857
sL4209281L
(F2.0
L4209295L
tp4858
sL4235018L
(F44739242.666666664
L4235025L
tp4859
sL4213936L
(F4.0
L4213938L
tp4860
sL4218636L
(F1.0
L4218638L
tp4861
sL4292365L
(F2.0
L4292390L
tp4862
sL4218638L
(F1.0
L4218660L
tp4863
sL4289837L
(F32.0
L4289845L
tp4864
sL4292967L
(F1.0
L4293110L
tp4865
sL4235025L
(F22369621.333333332
L4235080L
tp4866
sL4270675L
(F1.0
L4270680L
tp4867
sL4221571L
(F2.0
L4221572L
tp4868
sL4328505L
(F1024.0
L4328530L
tp4869
sL4333334L
(F69.72295176920699
L4333345L
tp4870
sL4337625L
(F2427.259259259259
L4337646L
tp4871
sL4252126L
(F2.0
L4252178L
tp4872
sL4221572L
(F1.0
L4221587L
tp4873
sL4336121L
(F9510.893424036281
L4336144L
tp4874
sL4266038L
(F1.0
L4266073L
tp4875
sL4316957L
(F12.0
L4317011L
tp4876
sL4308766L
(F2.0
L4308771L
tp4877
sL4243231L
(F446785677318.5016
L4243286L
tp4878
sL4274751L
(F65536.0
L4274770L
tp4879
sL4333345L
(F139.44590353841397
L4333356L
tp4880
sL4329435L
(F64.0
L4329454L
tp4881
sL4218660L
(F2.0
L4218683L
tp4882
sL4308773L
(F1.0
L4308804L
tp4883
sL4292390L
(F2.0
L4292406L
tp4884
sL4312957L
(F4.0
L4312971L
tp4885
sL4325162L
(F8.0
L4325172L
tp4886
sL4296677L
(F25.6
L4296715L
tp4887
sL4333356L
(F278.89180707682794
L4333371L
tp4888
sL4324337L
(F69905.06666666667
L4324348L
tp4889
sL4291953L
(F1.0
L4291975L
tp4890
sL4284208L
(F2.0
L4284213L
tp4891
sL4283016L
(F2.0
L4283063L
tp4892
sL4337235L
(F3515.2955611178645
L4337242L
tp4893
sL4316220L
(F6.095238095238095
L4316234L
tp4894
sL4325172L
(F2.2857142857142856
L4325187L
tp4895
sL4284213L
(F1.0
L4284228L
tp4896
sL4292406L
(F1.0
L4292425L
tp4897
sL4226871L
(F84215045.01960784
L4226886L
tp4898
sL4265268L
(F256.0
L4265341L
tp4899
sL4267834L
(F218.45333333333335
L4267865L
tp4900
sL4333371L
(F185.927871384552
L4333382L
tp4901
sL4218575L
(F1.0
L4218590L
tp4902
sL4289845L
(F64.0
L4289885L
tp4903
sL4218688L
(F1.0
L4218690L
tp4904
sL4242121L
(F122167958641.77777
L4242128L
tp4905
sL4218690L
(F1.0
L4218713L
tp4906
sL4325187L
(F4.571428571428571
L4325193L
tp4907
sL4308804L
(F2.0
L4308815L
tp4908
sL4333382L
(F371.855742769104
L4333397L
tp4909
sL4210504L
(F1.0
L4210519L
tp4910
sL4292425L
(F2.0
L4292450L
tp4911
sL4259658L
(F2.0
L4259696L
tp4912
sL4334903L
(F682.6666666666666
L4334928L
tp4913
sL4300620L
(F32.0
L4300635L
tp4914
sL4273132L
(F256.0
L4273140L
tp4915
sL4233869L
(F2097152.0
L4233943L
tp4916
sL4298040L
(F4.0
L4298054L
tp4917
sL4317011L
(F12.0
L4317050L
tp4918
sL4276052L
(F1.0
L4276066L
tp4919
sL4333397L
(F743.711485538208
L4333412L
tp4920
sL4284246L
(F1.0
L4284295L
tp4921
sL4210519L
(F2.0
L4210524L
tp4922
sL4267865L
(F436.9066666666667
L4267888L
tp4923
sL4328079L
(F682.6666666666666
L4328101L
tp4924
sL4210524L
(F2.0
L4210526L
tp4925
sL4308829L
(F2.0
L4308840L
tp4926
sL4210526L
(F1.0
L4210585L
tp4927
sL4300639L
(F16.0
L4300692L
tp4928
sL4332872L
(F10.666666666666666
L4332883L
tp4929
sL4292450L
(F2.0
L4292468L
tp4930
sL4243299L
(F446785677318.5016
L4243312L
tp4931
sL4333412L
(F212.48899586805942
L4333423L
tp4932
sL4251493L
(F1.0
L4251528L
tp4933
sL4235110L
(F8388608.0
L4235117L
tp4934
sL4325223L
(F36.57142857142857
L4325238L
tp4935
sL4308840L
(F4.0
L4308851L
tp4936
sL6477116L
(F1.0
L6477120L
tp4937
sL4217157L
(F2.0
L4217162L
tp4938
sL4235117L
(F8388608.0
L4235172L
tp4939
sL4333423L
(F424.97799173611884
L4333438L
tp4940
sL4267888L
(F436.9066666666667
L4267901L
tp4941
sL4292584L
(F24.0
L4292602L
tp4942
sL4218738L
(F2.0
L4218743L
tp4943
sL4308851L
(F2.0
L4308866L
tp4944
sL4274770L
(F32768.0
L4274797L
tp4945
sL4325238L
(F73.14285714285714
L4325254L
tp4946
sL4214761L
(F2.0
L4214780L
tp4947
sL4218745L
(F1.0
L4218772L
tp4948
sL4317050L
(F12.0
L4317089L
tp4949
sL4281317L
(F120.47058823529412
L4281330L
tp4950
sL4267901L
(F873.8133333333334
L4267932L
tp4951
sL4333438L
(F849.9559834722377
L4333453L
tp4952
sL4242069L
(F122167958641.77777
L4242076L
tp4953
sL4292480L
(F24.0
L4292514L
tp4954
sL4308866L
(F4.0
L4308881L
tp4955
sL4226947L
(F21053761.25490196
L4226964L
tp4956
sL4252869L
(F160.0
L4252913L
tp4957
sL4325254L
(F146.28571428571428
L4325264L
tp4958
sL4284295L
(F1.0
L4284314L
tp4959
sL4291037L
(F8.0
L4291159L
tp4960
sL4274441L
(F17476.266666666666
L4274460L
tp4961
sL4333453L
(F40.70484755511286
L4333475L
tp4962
sL4325264L
(F146.28571428571428
L4325278L
tp4963
sL4308881L
(F2.6666666666666665
L4308895L
tp4964
sL4224323L
(F1024.0
L4224338L
tp4965
sL4300692L
(F4.0
L4300695L
tp4966
sL4263587L
(F2.0
L4263599L
tp4967
sL4300695L
(F8.0
L4300698L
tp4968
sL4210585L
(F2.0
L4210601L
tp4969
sL4300698L
(F16.0
L4300699L
tp4970
sL4300699L
(F2.2857142857142856
L4300767L
tp4971
sL4217487L
(F16.0
L4217496L
tp4972
sL4221594L
(F1.0
L4221631L
tp4973
sL4325278L
(F9.142857142857142
L4325303L
tp4974
sL4308895L
(F2.0
L4308909L
tp4975
sL4284320L
(F2.0
L4284325L
tp4976
sL4317089L
(F1.7142857142857142
L4317094L
tp4977
sL4292514L
(F24.0
L4292532L
tp4978
sL4333475L
(F2.67930193241585
L4333482L
tp4979
sL4235172L
(F2097152.0
L4235245L
tp4980
sL4334511L
(F341.3333333333333
L4334518L
tp4981
sL4317094L
(F1.0
L4317096L
tp4982
sL4308977L
(F2.0
L4308991L
tp4983
sL4317096L
(F1.0
L4317120L
tp4984
sL4210601L
(F2.0
L4210611L
tp4985
sL4333482L
(F5.3586038648317
L4333518L
tp4986
sL4308909L
(F4.0
L4308935L
tp4987
sL4319068L
(F2.0
L4319079L
tp4988
sL4296787L
(F34.13333333333333
L4296802L
tp4989
sL4267952L
(F10.666666666666666
L4267982L
tp4990
sL4218801L
(F2.0
L4218806L
tp4991
sL4219670L
(F16.0
L4219704L
tp4992
sL4210611L
(F1.0
L4210626L
tp4993
sL4292532L
(F24.0
L4292550L
tp4994
sL4218806L
(F1.0
L4218808L
tp4995
sL4325303L
(F18.285714285714285
L4325319L
tp4996
sL4218808L
(F1.0
L4218835L
tp4997
sL4251578L
(F2.0
L4251607L
tp4998
sL4209311L
(F2.0
L4209349L
tp4999
sL4218499L
(F1.0
L4218518L
tp5000
sL4209414L
(F2.0
L4209422L
tp5001
sL4268021L
(F85.33333333333333
L4268041L
tp5002
sL4270408L
(F36.000000000000014
L4270452L
tp5003
sL4210626L
(F2.0
L4210631L
tp5004
sL4326731L
(F1170.2857142857142
L4326738L
tp5005
sL4251451L
(F1.0
L4251493L
tp5006
sL4292550L
(F24.0
L4292584L
tp5007
sL4325319L
(F18.285714285714285
L4325381L
tp5008
sL4317128L
(F1.3333333333333333
L4317147L
tp5009
sL4273484L
(F5957.818181818182
L4273494L
tp5010
sL4218871L
(F1.0
L4218911L
tp5011
sL4298505L
(F8.0
L4298516L
tp5012
sL4299426L
(F8.0
L4299441L
tp5013
sL4333518L
(F10.7172077296634
L4333525L
tp5014
sL4284371L
(F4.0
L4284376L
tp5015
sL4333525L
(F3.572402576554467
L4333530L
tp5016
sL4251607L
(F4.0
L4251626L
tp5017
sL4284376L
(F2.0
L4284393L
tp5018
sL4311716L
(F1.6
L4311731L
tp5019
sL4333530L
(F1.1942539095838567
L4333545L
tp5020
sL4317147L
(F4.0
L4317152L
tp5021
sL4243420L
(F1021224405299.4323
L4243435L
tp5022
sL4300767L
(F2.0
L4300782L
tp5023
sL4317152L
(F1.0
L4317154L
tp5024
sL4334928L
(F1365.3333333333333
L4334944L
tp5025
sL4317154L
(F1.0
L4317290L
tp5026
sL4308963L
(F4.0
L4308977L
tp5027
sL4246950L
(F2.0
L4246964L
tp5028
sL4294687L
(F14.222222222222221
L4294903L
tp5029
sL4284393L
(F2.0
L4284400L
tp5030
sL4251626L
(F2.0
L4251661L
tp5031
sL4233484L
(F2097152.0
L4233491L
tp5032
sL4235245L
(F4194304.0
L4235252L
tp5033
sL4333550L
(F2.3885078191677134
L4333552L
tp5034
sL4333552L
(F1.0
L4333647L
tp5035
sL4330149L
(F4017.532567049808
L4330158L
tp5036
sL4243442L
(F1021224405299.4323
L4243497L
tp5037
sL4314451L
(F4.0
L4314456L
tp5038
sL4235252L
(F4194304.0
L4235307L
tp5039
sL4300789L
(F1.0
L4300829L
tp5040
sL4284406L
(F4.0
L4284411L
tp5041
sL4319913L
(F32760.00195264828
L4319932L
tp5042
sL4292602L
(F3.4285714285714284
L4292603L
tp5043
sL4231167L
(F256.0
L4231186L
tp5044
sL6477124L
(F1.0
L6477128L
tp5045
sL4308991L
(F4.0
L4309005L
tp5046
s.