(dp0
L4210688L
(F4.0
L4210710L
tp1
sL4218882L
(F16.0
L4218893L
tp2
sL4259844L
(F5957.818181818182
L4259873L
tp3
sL4218893L
(F32.0
L4218917L
tp4
sL11363672L
(F1.0
L11363676L
tp5
sL4210710L
(F4.571428571428571
L4210738L
tp6
sL4259873L
(F1489.4545454545455
L4260010L
tp7
sL4218917L
(F64.0
L4218922L
tp8
sL4227118L
(F1.6842105263157894
L4227123L
tp9
sL4218928L
(F16.0
L4218958L
tp10
sL4210738L
(F1.8823529411764706
L4210753L
tp11
sL4227123L
(F1.0666666666666667
L4227148L
tp12
sL4260592L
(F762600.7272727273
L4260596L
tp13
sL4202560L
(F59.57011679437931
L4202601L
tp14
sL4210753L
(F1.3061224489795917
L4210792L
tp15
sL4206604L
(F446.77587595784485
L4206636L
tp16
sL4218958L
(F32.0
L4218966L
tp17
sL4227152L
(F8.0
L4227176L
tp18
sL4218966L
(F64.0
L4218974L
tp19
sL4218974L
(F128.0
L4218987L
tp20
sL4227176L
(F16.0
L4227189L
tp21
sL4202601L
(F33.09450933021073
L4202613L
tp22
sL4218987L
(F32.0
L4218996L
tp23
sL4210800L
(F2.0
L4210822L
tp24
sL4218996L
(F64.0
L4219010L
tp25
sL4227189L
(F2.0
L4227194L
tp26
sL4227194L
(F4.0
L4227240L
tp27
sL4219010L
(F32.0
L4219024L
tp28
sL4210822L
(F2.2857142857142856
L4210829L
tp29
sL4210829L
(F4.571428571428571
L4210837L
tp30
sL4219024L
(F64.0
L4219038L
tp31
sL4210840L
(F4.571428571428571
L4210852L
tp32
sL4219038L
(F32.0
L4219046L
tp33
sL4199792L
(F2.0
L4199817L
tp34
sL4210852L
(F4.571428571428571
L4210901L
tp35
sL4219046L
(F64.0
L4219054L
tp36
sL4227240L
(F8.0
L4227256L
tp37
sL4260010L
(F1489.4545454545455
L4260056L
tp38
sL4219054L
(F128.0
L4219067L
tp39
sL4202671L
(F21.02474710389858
L4202688L
tp40
sL4261235L
(F199911205050.18182
L4261250L
tp41
sL4217545L
(F102.4
L4217555L
tp42
sL4227256L
(F16.0
L4227265L
tp43
sL4219067L
(F32.0
L4219076L
tp44
sL4202688L
(F20.942619185523977
L4202702L
tp45
sL4231200L
(F2048.0
L4231210L
tp46
sL4219076L
(F64.0
L4219090L
tp47
sL4235462L
(F1.3333333333333333
L4235464L
tp48
sL4202702L
(F41.885238371047954
L4202718L
tp49
sL4227280L
(F16.0
L4227290L
tp50
sL11363704L
(F1.0
L11363708L
tp51
sL4219090L
(F32.0
L4219098L
tp52
sL4210901L
(F9.142857142857142
L4210911L
tp53
sL4260056L
(F2978.909090909091
L4260068L
tp54
sL4235481L
(F2.0
L4235488L
tp55
sL4232570L
(F2.178723404255319
L4232575L
tp56
sL4202718L
(F83.77047674209591
L4202732L
tp57
sL4210911L
(F18.285714285714285
L4210921L
tp58
sL4235488L
(F2.0
L4235575L
tp59
sL4260068L
(F5957.818181818182
L4260124L
tp60
sL4230176L
(F1.0
L4230245L
tp61
sL4210921L
(F36.57142857142857
L4210951L
tp62
sL4219115L
(F64.0
L4219127L
tp63
sL4202732L
(F167.54095348419182
L4202745L
tp64
sL4217555L
(F136.53333333333333
L4217572L
tp65
sL4219127L
(F32.0
L4219138L
tp66
sL4202745L
(F335.08190696838363
L4202764L
tp67
sL11363712L
(F1.0
L11363716L
tp68
sL4219138L
(F64.0
L4219150L
tp69
sL4210951L
(F73.14285714285714
L4210960L
tp70
sL4219150L
(F32.0
L4219157L
tp71
sL4202768L
(F41.885238371047954
L4202782L
tp72
sL4210962L
(F4.031496062992126
L4210967L
tp73
sL4219157L
(F64.0
L4219169L
tp74
sL4205770L
(F146.63413364770292
L4205780L
tp75
sL4260124L
(F5957.818181818182
L4260176L
tp76
sL4202782L
(F83.77047674209591
L4202806L
tp77
sL4210976L
(F9.142857142857142
L4210993L
tp78
sL4219169L
(F42.666666666666664
L4219181L
tp79
sL4227370L
(F4.0
L4227405L
tp80
sL4219184L
(F16.0
L4219224L
tp81
sL4210993L
(F4.0
L4211007L
tp82
sL4202806L
(F167.54095348419182
L4202817L
tp83
sL4235575L
(F1.3333333333333333
L4235577L
tp84
sL4218592L
(F1.0
L4218598L
tp85
sL4211007L
(F8.0
L4211049L
tp86
sL4235584L
(F1.0
L4235584L
tp87
sL4202817L
(F335.08190696838363
L4202846L
tp88
sL4227405L
(F5.333333333333333
L4227408L
tp89
sL4235600L
(F1.0
L4235611L
tp90
sL4235611L
(F2.0
L4235623L
tp91
sL4202848L
(F41.885238371047954
L4202860L
tp92
sL4216208L
(F26.859016393442623
L4216233L
tp93
sL4235623L
(F4.0
L4235664L
tp94
sL4260200L
(F5957.818181818182
L4260246L
tp95
sL4211049L
(F16.0
L4211053L
tp96
sL4202860L
(F83.77047674209591
L4202873L
tp97
sL4211053L
(F8.0
L4211107L
tp98
sL4202873L
(F55.846984494730606
L4202886L
tp99
sL4227456L
(F273.06666666666666
L4227487L
tp100
sL4231232L
(F32.0
L4231267L
tp101
sL4202886L
(F111.69396898946121
L4202904L
tp102
sL4201196L
(F61.08330170346199
L4201201L
tp103
sL4235664L
(F4.0
L4235671L
tp104
sL4225960L
(F7.111111111111111
L4225969L
tp105
sL4260246L
(F11915.636363636364
L4260288L
tp106
sL4235671L
(F8.0
L4235681L
tp107
sL4202904L
(F20.942619185523977
L4202918L
tp108
sL4227487L
(F10.11358024691358
L4227490L
tp109
sL4219296L
(F42.666666666666664
L4219308L
tp110
sL4235681L
(F16.0
L4235690L
tp111
sL4227490L
(F4.266666666666667
L4227503L
tp112
sL4211107L
(F16.0
L4211116L
tp113
sL4202918L
(F41.885238371047954
L4202931L
tp114
sL4235690L
(F2.2857142857142856
L4235692L
tp115
sL4211116L
(F32.0
L4211121L
tp116
sL4227503L
(F8.533333333333333
L4227534L
tp117
sL4235696L
(F8.0
L4235728L
tp118
sL4202931L
(F83.77047674209591
L4202963L
tp119
sL4211136L
(F1.0
L4211148L
tp120
sL4211148L
(F1.0158730158730158
L4211154L
tp121
sL4227534L
(F17.066666666666666
L4227542L
tp122
sL4235728L
(F1.0
L4235744L
tp123
sL4225784L
(F16.0
L4225796L
tp124
sL4260308L
(F11915.636363636364
L4260335L
tp125
sL4227542L
(F34.13333333333333
L4227564L
tp126
sL4202968L
(F66.18901866042145
L4203000L
tp127
sL4211166L
(F4.0
L4211172L
tp128
sL4235744L
(F1.0
L4235820L
tp129
sL4233979L
(F292.0011138958507
L4234017L
tp130
sL4211172L
(F8.0
L4211178L
tp131
sL4211178L
(F16.0
L4211184L
tp132
sL4227564L
(F68.26666666666667
L4227590L
tp133
sL4260335L
(F23831.272727272728
L4260354L
tp134
sL4211184L
(F32.0
L4211258L
tp135
sL4228520L
(F27235.74025974026
L4228527L
tp136
sL4203008L
(F148.9252919859483
L4203047L
tp137
sL4260354L
(F47662.545454545456
L4260392L
tp138
sL4208043L
(F82.2256395283575
L4208047L
tp139
sL4227590L
(F136.53333333333333
L4227611L
tp140
sL4243975L
(F2.0
L4244003L
tp141
sL4227611L
(F45.51111111111111
L4227634L
tp142
sL4206682L
(F537.6
L4206689L
tp143
sL11363760L
(F1.0
L11363764L
tp144
sL4244003L
(F2.0
L4244045L
tp145
sL4203047L
(F148.9252919859483
L4203079L
tp146
sL4260392L
(F47662.545454545456
L4260412L
tp147
sL4235820L
(F2.0
L4235832L
tp148
sL4227634L
(F34.13333333333333
L4227652L
tp149
sL4216243L
(F53.718032786885246
L4216252L
tp150
sL4235832L
(F4.0
L4235834L
tp151
sL4211258L
(F64.0
L4211292L
tp152
sL4260412L
(F47662.545454545456
L4260439L
tp153
sL4226784L
(F2.0
L4226791L
tp154
sL4198496L
(F1.0
L4198512L
tp155
sL4227652L
(F68.26666666666667
L4227661L
tp156
sL4235846L
(F16.0
L4235852L
tp157
sL4235852L
(F32.0
L4235864L
tp158
sL4227661L
(F136.53333333333333
L4227697L
tp159
sL4203088L
(F223.38793797892242
L4203120L
tp160
sL4223075L
(F2.6666666666666665
L4223208L
tp161
sL4260439L
(F95325.09090909091
L4260458L
tp162
sL4235864L
(F64.0
L4235876L
tp163
sL4211296L
(F1.0
L4212096L
tp164
sL4208059L
(F287.78973834925125
L4208066L
tp165
sL4235876L
(F128.0
L4235888L
tp166
sL4260458L
(F190650.18181818182
L4260496L
tp167
sL4203120L
(F335.08190696838363
L4203152L
tp168
sL4227697L
(F273.06666666666666
L4227733L
tp169
sL4235904L
(F8.0
L4235916L
tp170
sL11363776L
(F1.0
L11363780L
tp171
sL4235916L
(F16.0
L4235922L
tp172
sL4208066L
(F575.5794766985025
L4208130L
tp173
sL4203152L
(F167.54095348419182
L4203184L
tp174
sL4235922L
(F32.0
L4235934L
tp175
sL4227736L
(F5.688888888888889
L4227742L
tp176
sL4227742L
(F1.062240663900415
L4227760L
tp177
sL4219552L
(F1.0
L4219629L
tp178
sL4198512L
(F2.0
L4198517L
tp179
sL4235942L
(F128.0
L4235952L
tp180
sL4260526L
(F381300.36363636365
L4260568L
tp181
sL4203184L
(F26.475607464168583
L4203247L
tp182
sL4244146L
(F2.0
L4244486L
tp183
sL4202613L
(F66.18901866042145
L4202671L
tp184
sL4213976L
(F2.0
L4213989L
tp185
sL4234017L
(F584.0022277917014
L4234022L
tp186
sL4227786L
(F16.0
L4227808L
tp187
sL4260568L
(F762600.7272727273
L4260592L
tp188
sL4258432L
(F16.0
L4258486L
tp189
sL4247248L
(F21.333333333333332
L4247261L
tp190
sL4227808L
(F32.0
L4227840L
tp191
sL4203247L
(F39.71341119625288
L4203293L
tp192
sL4219632L
(F1.0
L4219676L
tp193
sL4260600L
(F1525201.4545454546
L4260609L
tp194
sL4227840L
(F64.0
L4227842L
tp195
sL4260609L
(F762600.7272727273
L4260653L
tp196
sL4227848L
(F32.0
L4227859L
tp197
sL4236042L
(F2.0
L4236047L
tp198
sL4236048L
(F32.0
L4236060L
tp199
sL4236060L
(F64.0
L4236072L
tp200
sL4203293L
(F89.35517519156897
L4203365L
tp201
sL4219678L
(F1.0
L4219703L
tp202
sL4227872L
(F1.0
L4227948L
tp203
sL4247686L
(F2.048
L4247703L
tp204
sL4236072L
(F128.0
L4236087L
tp205
sL4260653L
(F1525201.4545454546
L4260657L
tp206
sL4219703L
(F2.0
L4219717L
tp207
sL4260664L
(F3050402.909090909
L4260673L
tp208
sL4260673L
(F1525201.4545454546
L4260717L
tp209
sL4236102L
(F64.0
L4236117L
tp210
sL4265441L
(F1024.0
L4265449L
tp211
sL4219720L
(F2.0
L4219743L
tp212
sL4236117L
(F256.0
L4236132L
tp213
sL11363812L
(F1.0
L11363816L
tp214
sL4219743L
(F4.0
L4219770L
tp215
sL4203365L
(F178.71035038313795
L4203434L
tp216
sL4236136L
(F32.0
L4236144L
tp217
sL4227948L
(F0.9991099858550053
L4227971L
tp218
sL4260717L
(F3050402.909090909
L4260741L
tp219
sL4236144L
(F64.0
L4236156L
tp220
sL4228585L
(F3352.091108891109
L4228613L
tp221
sL4219770L
(F8.0
L4219792L
tp222
sL4236156L
(F128.0
L4236171L
tp223
sL4227971L
(F1.9982199717100106
L4227986L
tp224
sL4260741L
(F6100805.818181818
L4260762L
tp225
sL4236171L
(F4.0
L4236186L
tp226
sL4219792L
(F16.0
L4219801L
tp227
sL4214937L
(F682.6666666666666
L4214950L
tp228
sL4227992L
(F2.0
L4228019L
tp229
sL4219801L
(F32.0
L4219806L
tp230
sL4236186L
(F64.0
L4236201L
tp231
sL4219806L
(F16.0
L4219977L
tp232
sL4260768L
(F6100805.818181818
L4260784L
tp233
sL4236201L
(F64.0
L4236216L
tp234
sL4203434L
(F357.4207007662759
L4203466L
tp235
sL4260784L
(F6100805.818181818
L4260800L
tp236
sL4228019L
(F4.0
L4228028L
tp237
sL4236216L
(F128.0
L4236231L
tp238
sL4228028L
(F8.0
L4228036L
tp239
sL4260800L
(F6100805.818181818
L4260828L
tp240
sL4225867L
(F64.0
L4225872L
tp241
sL4228036L
(F16.0
L4228044L
tp242
sL4236231L
(F16.0
L4236246L
tp243
sL4203466L
(F134.03276278735345
L4203529L
tp244
sL4228044L
(F7.111111111111111
L4228052L
tp245
sL11363832L
(F1.0
L11363836L
tp246
sL4236246L
(F64.0
L4236261L
tp247
sL4228056L
(F8.0
L4228063L
tp248
sL4260828L
(F12201611.636363637
L4260841L
tp249
sL4228063L
(F9.142857142857142
L4228107L
tp250
sL4201296L
(F37.58972412520738
L4201304L
tp251
sL4258641L
(F16.0
L4258714L
tp252
sL4260841L
(F24403223.272727273
L4260855L
tp253
sL4236272L
(F1.0
L4236285L
tp254
sL4260855L
(F48806446.54545455
L4260858L
tp255
sL4260858L
(F48806446.54545455
L4260878L
tp256
sL4236285L
(F2.0
L4236289L
tp257
sL4249440L
(F1.0
L4251576L
tp258
sL4244486L
(F4.0
L4244510L
tp259
sL4236296L
(F2.0
L4236385L
tp260
sL4203529L
(F167.54095348419182
L4203601L
tp261
sL4228107L
(F18.285714285714285
L4228216L
tp262
sL4260878L
(F48806446.54545455
L4260898L
tp263
sL4229976L
(F130763.47792398078
L4230026L
tp264
sL4244510L
(F4.0
L4244730L
tp265
sL4231344L
(F431.1578947368421
L4231355L
tp266
sL4260898L
(F48806446.54545455
L4260926L
tp267
sL4216328L
(F6.80539979231568
L4216372L
tp268
sL4248912L
(F25.892563526788127
L4248915L
tp269
sL4260926L
(F97612893.0909091
L4260940L
tp270
sL4225888L
(F1.0
L4225893L
tp271
sL4219977L
(F2.0
L4219982L
tp272
sL4260940L
(F195225786.1818182
L4260950L
tp273
sL4219984L
(F1.0
L4219991L
tp274
sL4203601L
(F335.08190696838363
L4203670L
tp275
sL4260950L
(F390451572.3636364
L4260958L
tp276
sL4219991L
(F2.0
L4219996L
tp277
sL4220528L
(F1365.3333333333333
L4220552L
tp278
sL4219996L
(F4.0
L4219998L
tp279
sL4260958L
(F390451572.3636364
L4260963L
tp280
sL4220000L
(F8.0
L4220005L
tp281
sL4247261L
(F42.666666666666664
L4247295L
tp282
sL4260963L
(F390451572.3636364
L4261023L
tp283
sL4220005L
(F4.0
L4220015L
tp284
sL4220015L
(F1.1428571428571428
L4220017L
tp285
sL4236400L
(F1.0
L4236414L
tp286
sL4220024L
(F16.0
L4220026L
tp287
sL4236414L
(F2.0
L4236443L
tp288
sL4220032L
(F1.0
L4220080L
tp289
sL4231360L
(F146.28571428571428
L4231370L
tp290
sL4228230L
(F73.14285714285714
L4228238L
tp291
sL4227265L
(F3.5555555555555554
L4227275L
tp292
sL4228238L
(F36.57142857142857
L4228246L
tp293
sL11363864L
(F1.0
L11363868L
tp294
sL4203670L
(F670.1638139367673
L4203702L
tp295
sL4236443L
(F4.0
L4236455L
tp296
sL4228253L
(F146.28571428571428
L4228272L
tp297
sL4261023L
(F780903144.7272727
L4261035L
tp298
sL4236455L
(F8.0
L4236468L
tp299
sL4261035L
(F1561806289.4545455
L4261039L
tp300
sL4261039L
(F1561806289.4545455
L4261045L
tp301
sL4228272L
(F292.57142857142856
L4228290L
tp302
sL4220082L
(F1.0003673740317376
L4220107L
tp303
sL4236468L
(F5.333333333333333
L4236527L
tp304
sL4261045L
(F1561806289.4545455
L4261062L
tp305
sL4203702L
(F167.54095348419182
L4203715L
tp306
sL4228290L
(F117.02857142857142
L4228300L
tp307
sL4203715L
(F335.08190696838363
L4203734L
tp308
sL4226000L
(F1.0
L4226005L
tp309
sL4261062L
(F1561806289.4545455
L4261073L
tp310
sL4204065L
(F83.77047674209591
L4204108L
tp311
sL4220107L
(F2.000734748063475
L4220125L
tp312
sL4228300L
(F234.05714285714285
L4228305L
tp313
sL4228305L
(F234.05714285714285
L4228312L
tp314
sL4203734L
(F83.77047674209591
L4203747L
tp315
sL4228312L
(F212.7792207792208
L4228328L
tp316
sL4220128L
(F2.0
L4220154L
tp317
sL4235472L
(F1.0
L4235481L
tp318
sL4203747L
(F167.54095348419182
L4203758L
tp319
sL4228328L
(F425.5584415584416
L4228337L
tp320
sL4261101L
(F3123612578.909091
L4261114L
tp321
sL4203758L
(F111.69396898946121
L4203765L
tp322
sL4236527L
(F5.333333333333333
L4236544L
tp323
sL4228337L
(F851.1168831168832
L4228342L
tp324
sL4203765L
(F223.38793797892242
L4203807L
tp325
sL4228342L
(F23.295606147283763
L4228370L
tp326
sL4220154L
(F4.0
L4220183L
tp327
sL4236544L
(F5.333333333333333
L4236575L
tp328
sL4246448L
(F1.0
L4246463L
tp329
sL4261128L
(F12494450315.636364
L4261139L
tp330
sL4244752L
(F8.0
L4244787L
tp331
sL4204440L
(F1344.0
L4204468L
tp332
sL4261139L
(F24988900631.272728
L4261144L
tp333
sL4232750L
(F32.0
L4232755L
tp334
sL4220183L
(F8.0
L4220207L
tp335
sL4228376L
(F1702.2337662337663
L4228391L
tp336
sL4203807L
(F89.35517519156897
L4203831L
tp337
sL11363616L
(F1.0
L11363620L
tp338
sL11363620L
(F1.0
L11363624L
tp339
sL4232810L
(F2.0
L4232851L
tp340
sL4228391L
(F3404.4675324675327
L4228410L
tp341
sL4261160L
(F24988900631.272728
L4261180L
tp342
sL11363628L
(F1.0
L11363632L
tp343
sL4220207L
(F16.0
L4220219L
tp344
sL11363632L
(F1.0
L11363636L
tp345
sL4244787L
(F16.0
L4244884L
tp346
sL11363636L
(F1.0
L11363640L
tp347
sL4203831L
(F178.71035038313795
L4203842L
tp348
sL11363640L
(F1.0
L11363644L
tp349
sL11363892L
(F1.0
L11363896L
tp350
sL4220219L
(F32.0
L4220231L
tp351
sL4261180L
(F24988900631.272728
L4261208L
tp352
sL4230026L
(F130763.47792398078
L4230075L
tp353
sL4228416L
(F6808.935064935065
L4228431L
tp354
sL4219104L
(F32.0
L4219115L
tp355
sL4203842L
(F357.4207007662759
L4203865L
tp356
sL4236612L
(F10.666666666666666
L4236888L
tp357
sL4220231L
(F21.333333333333332
L4220250L
tp358
sL11363656L
(F1.0
L11363660L
tp359
sL11363660L
(F1.0
L11363664L
tp360
sL4228431L
(F3404.4675324675327
L4228451L
tp361
sL11363664L
(F1.0
L11363668L
tp362
sL11363668L
(F1.0
L11363672L
tp363
sL4261208L
(F49977801262.545456
L4261222L
tp364
sL4203865L
(F119.14023358875862
L4203955L
tp365
sL4220250L
(F42.666666666666664
L4220275L
tp366
sL11363676L
(F1.0
L11363680L
tp367
sL11363680L
(F1.0
L11363684L
tp368
sL4228451L
(F6808.935064935065
L4228472L
tp369
sL11363684L
(F1.0
L11363688L
tp370
sL4261222L
(F99955602525.09091
L4261235L
tp371
sL11363688L
(F1.0
L11363692L
tp372
sL11363692L
(F1.0
L11363696L
tp373
sL4205458L
(F971.0806975278758
L4205494L
tp374
sL11363696L
(F1.0
L11363700L
tp375
sL4223208L
(F5.333333333333333
L4223282L
tp376
sL4220275L
(F85.33333333333333
L4220328L
tp377
sL11363700L
(F1.0
L11363704L
tp378
sL4228472L
(F13617.87012987013
L4228520L
tp379
sL11363708L
(F1.0
L11363712L
tp380
sL4212096L
(F1.0
L4213314L
tp381
sL4232768L
(F4.0
L4232806L
tp382
sL4261250L
(F2978.909090909091
L4261279L
tp383
sL11363716L
(F1.0
L11363720L
tp384
sL11363720L
(F1.0
L11363724L
tp385
sL11363724L
(F1.0
L11363728L
tp386
sL11363728L
(F1.0
L11363732L
tp387
sL11363732L
(F1.0
L11363736L
tp388
sL11363736L
(F1.0
L11363740L
tp389
sL11363908L
(F1.0
L11363912L
tp390
sL11363740L
(F1.0
L11363744L
tp391
sL4261279L
(F8.0
L4261305L
tp392
sL11363744L
(F1.0
L11363748L
tp393
sL11363748L
(F1.0
L11363752L
tp394
sL4220328L
(F170.66666666666666
L4220336L
tp395
sL11363756L
(F1.0
L11363760L
tp396
sL4228527L
(F419.0113886113886
L4228546L
tp397
sL4220336L
(F341.3333333333333
L4220345L
tp398
sL4203955L
(F0.2650301804895894
L4204004L
tp399
sL11363764L
(F1.0
L11363768L
tp400
sL11363768L
(F1.0
L11363772L
tp401
sL4220345L
(F682.6666666666666
L4220350L
tp402
sL11363772L
(F1.0
L11363776L
tp403
sL4220350L
(F341.3333333333333
L4220358L
tp404
sL4261312L
(F1.0
L4261361L
tp405
sL4228546L
(F838.0227772227772
L4228557L
tp406
sL11363780L
(F1.0
L11363784L
tp407
sL4220358L
(F170.66666666666666
L4220468L
tp408
sL11363784L
(F1.0
L11363788L
tp409
sL11363916L
(F1.0
L11363920L
tp410
sL11363788L
(F1.0
L11363792L
tp411
sL4228557L
(F1676.0455544455544
L4228585L
tp412
sL11363792L
(F1.0
L11363796L
tp413
sL11363796L
(F1.0
L11363800L
tp414
sL4208811L
(F1942.1613950557517
L4208841L
tp415
sL11363800L
(F1.0
L11363804L
tp416
sL4213668L
(F1.3333333333333333
L4213673L
tp417
sL11363804L
(F1.0
L11363808L
tp418
sL4253152L
(F1.0
L4253176L
tp419
sL4204004L
(F0.5300603609791787
L4204009L
tp420
sL11363816L
(F1.0
L11363820L
tp421
sL4204009L
(F0.2650301804895894
L4204025L
tp422
sL11363820L
(F1.0
L11363824L
tp423
sL11363824L
(F1.0
L11363828L
tp424
sL4261361L
(F1.0
L4261372L
tp425
sL11363828L
(F1.0
L11363832L
tp426
sL4253176L
(F2.0
L4253208L
tp427
sL4204025L
(F83.77047674209591
L4204065L
tp428
sL4261372L
(F2.0
L4261414L
tp429
sL11363840L
(F1.0
L11363844L
tp430
sL11363844L
(F1.0
L11363848L
tp431
sL4228613L
(F6704.182217782218
L4228641L
tp432
sL11363848L
(F1.0
L11363852L
tp433
sL11363852L
(F1.0
L11363856L
tp434
sL11363856L
(F1.0
L11363860L
tp435
sL11363928L
(F1.0
L11363932L
tp436
sL11363860L
(F1.0
L11363864L
tp437
sL4226544L
(F8.0
L4226552L
tp438
sL4253208L
(F4.0
L4253237L
tp439
sL11363868L
(F1.0
L11363872L
tp440
sL11363872L
(F1.0
L11363876L
tp441
sL4228641L
(F13408.364435564436
L4228662L
tp442
sL11363876L
(F1.0
L11363880L
tp443
sL4261414L
(F4.0
L4261439L
tp444
sL11363880L
(F1.0
L11363884L
tp445
sL11363884L
(F1.0
L11363888L
tp446
sL11363888L
(F1.0
L11363892L
tp447
sL4220468L
(F341.3333333333333
L4220477L
tp448
sL4253237L
(F2.6666666666666665
L4253252L
tp449
sL4228662L
(F13408.364435564436
L4228718L
tp450
sL11363896L
(F1.0
L11363900L
tp451
sL11363900L
(F1.0
L11363904L
tp452
sL4220477L
(F682.6666666666666
L4220487L
tp453
sL4261439L
(F2.6666666666666665
L4261488L
tp454
sL11363904L
(F1.0
L11363908L
tp455
sL4253252L
(F4.0
L4253364L
tp456
sL4234166L
(F390.0952380952381
L4234182L
tp457
sL4220487L
(F1365.3333333333333
L4220528L
tp458
sL11363912L
(F1.0
L11363916L
tp459
sL4204108L
(F336.0
L4204126L
tp460
sL4245069L
(F8.0
L4245093L
tp461
sL11363920L
(F1.0
L11363924L
tp462
sL11363924L
(F1.0
L11363928L
tp463
sL4236888L
(F21.333333333333332
L4236920L
tp464
sL4200036L
(F47.627906976744185
L4200052L
tp465
sL11363932L
(F1.0
L11363936L
tp466
sL4204126L
(F336.0
L4204145L
tp467
sL11363936L
(F1.0
L11363940L
tp468
sL4210960L
(F5.389473684210526
L4210962L
tp469
sL11363940L
(F1.0
L11363944L
tp470
sL4245093L
(F4.0
L4245112L
tp471
sL11363944L
(F1.0
L11363948L
tp472
sL11363948L
(F1.0
L11363952L
tp473
sL4227346L
(F2.0
L4227370L
tp474
sL4228718L
(F26816.72887112887
L4228727L
tp475
sL4261488L
(F2.6666666666666665
L4261525L
tp476
sL4204145L
(F336.0
L4204165L
tp477
sL11363956L
(F1.0
L11363960L
tp478
sL4228727L
(F15323.845069216497
L4228779L
tp479
sL11363960L
(F1.0
L11363964L
tp480
sL4246463L
(F2.0
L4246464L
tp481
sL11363964L
(F1.0
L11363968L
tp482
sL4245117L
(F4.0
L4245125L
tp483
sL11363968L
(F1.0
L11363972L
tp484
sL4246464L
(F2.0
L4246492L
tp485
sL11363972L
(F1.0
L11363976L
tp486
sL4204165L
(F336.0
L4204191L
tp487
sL4220552L
(F2730.6666666666665
L4220557L
tp488
sL4245132L
(F4.0
L4245149L
tp489
sL4220557L
(F5461.333333333333
L4220559L
tp490
sL4220560L
(F10922.666666666666
L4220565L
tp491
sL11363988L
(F1.0
L11363992L
tp492
sL4220565L
(F5461.333333333333
L4220576L
tp493
sL11363992L
(F1.0
L11363996L
tp494
sL11363996L
(F1.0
L11364000L
tp495
sL4204191L
(F336.0
L4204204L
tp496
sL11364000L
(F1.0
L11364004L
tp497
sL11363952L
(F1.0
L11363956L
tp498
sL11364004L
(F1.0
L11364008L
tp499
sL4220585L
(F5461.333333333333
L4220598L
tp500
sL4236971L
(F42.666666666666664
L4236985L
tp501
sL4204204L
(F672.0
L4204211L
tp502
sL4261549L
(F10.666666666666666
L4261551L
tp503
sL4261551L
(F10.666666666666666
L4261565L
tp504
sL4204211L
(F1344.0
L4204224L
tp505
sL4253364L
(F4.0
L4253391L
tp506
sL4220598L
(F10922.666666666666
L4220620L
tp507
sL4236985L
(F21.333333333333332
L4237008L
tp508
sL4261565L
(F21.333333333333332
L4261567L
tp509
sL4261567L
(F21.333333333333332
L4261590L
tp510
sL4204224L
(F268.8
L4204232L
tp511
sL4204232L
(F537.6
L4204238L
tp512
sL4220620L
(F21845.333333333332
L4220719L
tp513
sL4204238L
(F1075.2
L4204246L
tp514
sL4253391L
(F8.0
L4253440L
tp515
sL4237008L
(F42.666666666666664
L4237056L
tp516
sL4236920L
(F21.333333333333332
L4236971L
tp517
sL4204246L
(F2150.4
L4204252L
tp518
sL4245208L
(F4.0
L4245240L
tp519
sL4261594L
(F42.666666666666664
L4261669L
tp520
sL4204252L
(F4300.8
L4204260L
tp521
sL4266960L
(F1.0
L4266962L
tp522
sL4200059L
(F47.627906976744185
L4200075L
tp523
sL4204260L
(F8601.6
L4204268L
tp524
sL4204268L
(F17203.2
L4204276L
tp525
sL4204276L
(F214.2366127023662
L4204289L
tp526
sL4245240L
(F2.0
L4245505L
tp527
sL4253440L
(F8.0
L4253445L
tp528
sL4204289L
(F336.0
L4204309L
tp529
sL4262832L
(F4.0
L4262897L
tp530
sL4253445L
(F16.0
L4253497L
tp531
sL4204309L
(F336.0
L4204329L
tp532
sL4228893L
(F61295.38027686599
L4228898L
tp533
sL4245125L
(F8.0
L4245132L
tp534
sL4228898L
(F122590.76055373198
L4228944L
tp535
sL4261669L
(F85.33333333333333
L4261697L
tp536
sL4204329L
(F336.0
L4204398L
tp537
sL4220719L
(F43690.666666666664
L4220740L
tp538
sL11363976L
(F1.0
L11363980L
tp539
sL4253497L
(F16.0
L4253517L
tp540
sL4261697L
(F170.66666666666666
L4261791L
tp541
sL4220740L
(F87381.33333333333
L4220761L
tp542
sL11363980L
(F1.0
L11363984L
tp543
sL4253517L
(F32.0
L4253536L
tp544
sL4228944L
(F22289.229191587634
L4229003L
tp545
sL4220761L
(F174762.66666666666
L4220782L
tp546
sL4253536L
(F32.0
L4253583L
tp547
sL11363984L
(F1.0
L11363988L
tp548
sL4204398L
(F336.0
L4204418L
tp549
sL4247871L
(F42.666666666666664
L4247881L
tp550
sL4261525L
(F5.333333333333333
L4261549L
tp551
sL4239680L
(F1.0
L4239763L
tp552
sL4204418L
(F336.0
L4204429L
tp553
sL4220803L
(F699050.6666666666
L4220824L
tp554
sL4217836L
(F2.201663450344218
L4217841L
tp555
sL4229003L
(F16345.434740497598
L4229008L
tp556
sL4204429L
(F672.0
L4204440L
tp557
sL4253583L
(F64.0
L4253589L
tp558
sL4229008L
(F32690.869480995196
L4229014L
tp559
sL4253589L
(F64.0
L4253609L
tp560
sL4229014L
(F65381.73896199039
L4229038L
tp561
sL4220824L
(F1398101.3333333333
L4220845L
tp562
sL4261791L
(F170.66666666666666
L4261925L
tp563
sL4253609L
(F32.0
L4253634L
tp564
sL4220845L
(F2796202.6666666665
L4220976L
tp565
sL4229038L
(F130763.47792398078
L4229096L
tp566
sL4204468L
(F336.0
L4204486L
tp567
sL4245152L
(F2.0
L4245202L
tp568
sL4253634L
(F64.0
L4253642L
tp569
sL4254655L
(F481.88235294117646
L4254659L
tp570
sL4204486L
(F336.0
L4204497L
tp571
sL4253642L
(F128.0
L4253703L
tp572
sL4262904L
(F85.33333333333333
L4263007L
tp573
sL4204508L
(F1344.0
L4204555L
tp574
sL4227408L
(F4.266666666666667
L4227448L
tp575
sL4235834L
(F8.0
L4235846L
tp576
sL4229096L
(F1088.7451575622854
L4229106L
tp577
sL4229106L
(F2177.4903151245708
L4229121L
tp578
sL4229121L
(F4354.9806302491415
L4229126L
tp579
sL4228779L
(F30647.690138432994
L4228787L
tp580
sL4253703L
(F256.0
L4253729L
tp581
sL4204555L
(F336.0
L4204573L
tp582
sL4209666L
(F476.5609343550345
L4209706L
tp583
sL4229136L
(F851.1168831168832
L4229153L
tp584
sL4245529L
(F4.0
L4245755L
tp585
sL4204573L
(F336.0
L4204584L
tp586
sL4229153L
(F1702.2337662337663
L4229196L
tp587
sL4261925L
(F341.3333333333333
L4261934L
tp588
sL4214832L
(F341.3333333333333
L4214908L
tp589
sL4204584L
(F672.0
L4204595L
tp590
sL4261934L
(F682.6666666666666
L4261947L
tp591
sL4220976L
(F19553.864801864802
L4221002L
tp592
sL4253747L
(F64.0
L4253757L
tp593
sL4217095L
(F859.4885245901639
L4217150L
tp594
sL4261947L
(F15.633587786259541
L4261979L
tp595
sL4253757L
(F128.0
L4253816L
tp596
sL4219232L
(F16.0
L4219294L
tp597
sL4245112L
(F8.0
L4245117L
tp598
sL4221002L
(F39107.729603729604
L4221010L
tp599
sL4229196L
(F3404.4675324675327
L4229255L
tp600
sL4221010L
(F78215.45920745921
L4221033L
tp601
sL4261979L
(F15.633587786259541
L4261994L
tp602
sL4221033L
(F2738.354919002734
L4221048L
tp603
sL4261994L
(F31.267175572519083
L4262003L
tp604
sL4225200L
(F2.0
L4225456L
tp605
sL4247912L
(F10.666666666666666
L4247920L
tp606
sL4262003L
(F62.534351145038165
L4262033L
tp607
sL4221048L
(F182.07852489750957
L4221084L
tp608
sL4204665L
(F336.0
L4204676L
tp609
sL4228800L
(F30647.690138432994
L4228893L
tp610
sL4204676L
(F672.0
L4204687L
tp611
sL4229255L
(F6808.935064935065
L4229260L
tp612
sL4204687L
(F1344.0
L4204718L
tp613
sL4229264L
(F425.5584415584416
L4229281L
tp614
sL4262033L
(F62.534351145038165
L4262047L
tp615
sL4258208L
(F1.0
L4258240L
tp616
sL4253844L
(F256.0
L4253851L
tp617
sL4217423L
(F4583.938797814208
L4217432L
tp618
sL4253851L
(F64.0
L4253874L
tp619
sL4221084L
(F182.07852489750957
L4221100L
tp620
sL4262047L
(F125.06870229007633
L4262052L
tp621
sL4229281L
(F851.1168831168832
L4229380L
tp622
sL4262056L
(F2.0
L4262094L
tp623
sL4221100L
(F364.15704979501913
L4221191L
tp624
sL4204718L
(F336.0
L4204736L
tp625
sL4253874L
(F128.0
L4253894L
tp626
sL4204736L
(F336.0
L4204752L
tp627
sL4246560L
(F2.0
L4246577L
tp628
sL4253894L
(F7.529411764705882
L4253927L
tp629
sL4201505L
(F143.89486917462563
L4201592L
tp630
sL4262094L
(F4.0
L4262115L
tp631
sL4204752L
(F672.0
L4204759L
tp632
sL4218384L
(F2.0
L4218424L
tp633
sL4204759L
(F1344.0
L4204783L
tp634
sL4200144L
(F23.813953488372093
L4200151L
tp635
sL4262115L
(F8.0
L4262167L
tp636
sL4253927L
(F15.058823529411764
L4253934L
tp637
sL4204783L
(F896.0
L4204796L
tp638
sL4253936L
(F128.0
L4253946L
tp639
sL4237556L
(F42.666666666666664
L4237588L
tp640
sL4245755L
(F4.0
L4245784L
tp641
sL4204796L
(F336.0
L4204822L
tp642
sL4253952L
(F128.0
L4253971L
tp643
sL4229380L
(F1702.2337662337663
L4229385L
tp644
sL4261590L
(F42.666666666666664
L4261594L
tp645
sL4221191L
(F728.3140995900383
L4221248L
tp646
sL4229392L
(F73.14285714285714
L4229412L
tp647
sL4253971L
(F256.0
L4254081L
tp648
sL4237588L
(F85.33333333333333
L4237597L
tp649
sL4204822L
(F336.0
L4204839L
tp650
sL4262167L
(F2.0
L4262233L
tp651
sL4237597L
(F170.66666666666666
L4237606L
tp652
sL4245792L
(F8.0
L4245825L
tp653
sL4229412L
(F146.28571428571428
L4229414L
tp654
sL4237606L
(F341.3333333333333
L4237616L
tp655
sL4204839L
(F336.0
L4204859L
tp656
sL4229424L
(F32.0
L4229435L
tp657
sL4204859L
(F335.08190696838363
L4204884L
tp658
sL4221248L
(F182.07852489750957
L4221258L
tp659
sL4245825L
(F4.0
L4246067L
tp660
sL4221258L
(F43690.666666666664
L4221290L
tp661
sL4229451L
(F32.0
L4229456L
tp662
sL4229456L
(F585.1428571428571
L4229477L
tp663
sL4204884L
(F335.08190696838363
L4204909L
tp664
sL4262233L
(F2.0
L4262242L
tp665
sL4262242L
(F4.0
L4262272L
tp666
sL4229477L
(F1170.2857142857142
L4229486L
tp667
sL4221290L
(F87381.33333333333
L4221322L
tp668
sL4204909L
(F111.69396898946121
L4204934L
tp669
sL4229486L
(F1170.2857142857142
L4229501L
tp670
sL4216480L
(F107.43606557377049
L4216514L
tp671
sL4229501L
(F1170.2857142857142
L4229511L
tp672
sL4262272L
(F4.0
L4262311L
tp673
sL4246592L
(F1.0
L4246613L
tp674
sL4204934L
(F178.71035038313795
L4204987L
tp675
sL4229511L
(F2340.5714285714284
L4229520L
tp676
sL4221322L
(F174762.66666666666
L4221354L
tp677
sL4254786L
(F481.88235294117646
L4254789L
tp678
sL4229520L
(F79.04040481629093
L4229539L
tp679
sL4262311L
(F8.0
L4262335L
tp680
sL4229544L
(F146.28571428571428
L4229571L
tp681
sL4221354L
(F349525.3333333333
L4221386L
tp682
sL4204987L
(F54.9878001178886
L4205022L
tp683
sL4262335L
(F16.0
L4262337L
tp684
sL4254144L
(F256.0
L4254169L
tp685
sL4262337L
(F16.0
L4262351L
tp686
sL4229576L
(F292.57142857142856
L4229610L
tp687
sL4221386L
(F170.66666666666666
L4221399L
tp688
sL4262351L
(F32.0
L4262353L
tp689
sL4262353L
(F32.0
L4262376L
tp690
sL4221399L
(F699050.6666666666
L4221519L
tp691
sL4205022L
(F109.9756002357772
L4205049L
tp692
sL4254176L
(F64.0
L4254302L
tp693
sL4262376L
(F64.0
L4262380L
tp694
sL4229610L
(F585.1428571428571
L4229645L
tp695
sL4262380L
(F64.0
L4262467L
tp696
sL4205049L
(F219.9512004715544
L4205064L
tp697
sL4220576L
(F2730.6666666666665
L4220585L
tp698
sL4237056L
(F42.666666666666664
L4237556L
tp699
sL4205064L
(F73.31706682385146
L4205090L
tp700
sL4219308L
(F42.666666666666664
L4219315L
tp701
sL4229645L
(F1170.2857142857142
L4229664L
tp702
sL4229664L
(F2340.5714285714284
L4229669L
tp703
sL4205090L
(F146.63413364770292
L4205099L
tp704
sL4229672L
(F26816.72887112887
L4229682L
tp705
sL4205099L
(F25.501588460470074
L4205112L
tp706
sL4237868L
(F1.6800656275635768
L4237870L
tp707
sL4237870L
(F4.0
L4237886L
tp708
sL4208392L
(F37.58972412520738
L4208410L
tp709
sL4229682L
(F53633.45774225774
L4229687L
tp710
sL4219315L
(F42.666666666666664
L4219322L
tp711
sL4229687L
(F53633.45774225774
L4229743L
tp712
sL4205112L
(F46.922922767264936
L4205117L
tp713
sL4263007L
(F85.33333333333333
L4263046L
tp714
sL4205117L
(F15.17313589887306
L4205139L
tp715
sL4237886L
(F5.333333333333333
L4238114L
tp716
sL4262467L
(F128.0
L4262495L
tp717
sL4246091L
(F8.0
L4246107L
tp718
sL4221519L
(F2796202.6666666665
L4221586L
tp719
sL4213328L
(F1.0
L4213515L
tp720
sL4205139L
(F15.17313589887306
L4205148L
tp721
sL4205148L
(F30.34627179774612
L4205172L
tp722
sL4254302L
(F128.0
L4254337L
tp723
sL4262495L
(F256.0
L4262585L
tp724
sL4246112L
(F2.0
L4246134L
tp725
sL4224784L
(F5.333333333333333
L4224822L
tp726
sL4229743L
(F107266.91548451548
L4229753L
tp727
sL4205172L
(F60.69254359549224
L4205232L
tp728
sL4246134L
(F2.0
L4246201L
tp729
sL4229753L
(F214533.83096903097
L4229758L
tp730
sL4229758L
(F61295.38027686599
L4229768L
tp731
sL4200213L
(F4.0
L4200225L
tp732
sL4219328L
(F1.0
L4219546L
tp733
sL4229768L
(F122590.76055373198
L4229827L
tp734
sL4221586L
(F1398101.3333333333
L4221715L
tp735
sL4254365L
(F128.0
L4254392L
tp736
sL4254832L
(F38.93998811645871
L4254857L
tp737
sL4205232L
(F121.38508719098448
L4205327L
tp738
sL4254392L
(F15.058823529411764
L4254415L
tp739
sL4262585L
(F128.0
L4262760L
tp740
sL4246208L
(F8.0
L4246225L
tp741
sL4229827L
(F1.9982199717100106
L4229832L
tp742
sL4229832L
(F245181.52110746395
L4229919L
tp743
sL4254415L
(F30.11764705882353
L4254423L
tp744
sL4201592L
(F575.5794766985025
L4201616L
tp745
sL4254423L
(F60.23529411764706
L4254472L
tp746
sL4246232L
(F8.0
L4246249L
tp747
sL4246256L
(F8.0
L4246268L
tp748
sL4246272L
(F1.0
L4246335L
tp749
sL4213888L
(F1.0
L4213976L
tp750
sL4226177L
(F4.0
L4226185L
tp751
sL4254472L
(F60.23529411764706
L4254489L
tp752
sL4200236L
(F16.0
L4200269L
tp753
sL4205327L
(F242.77017438196896
L4205379L
tp754
sL4213520L
(F1.0
L4213585L
tp755
sL4211160L
(F2.0
L4211166L
tp756
sL4221715L
(F364.15704979501913
L4221781L
tp757
sL4254489L
(F120.47058823529412
L4254496L
tp758
sL4229919L
(F490363.0422149279
L4229965L
tp759
sL4254496L
(F120.47058823529412
L4254508L
tp760
sL4238114L
(F10.666666666666666
L4238119L
tp761
sL4254508L
(F240.94117647058823
L4254563L
tp762
sL4238128L
(F10.666666666666666
L4238146L
tp763
sL4246335L
(F2.0
L4246341L
tp764
sL4243936L
(F1.0
L4243975L
tp765
sL4205379L
(F485.5403487639379
L4205388L
tp766
sL4246341L
(F2.0
L4246346L
tp767
sL4238152L
(F85.33333333333333
L4238222L
tp768
sL4205388L
(F971.0806975278758
L4205398L
tp769
sL4229965L
(F980726.0844298558
L4229976L
tp770
sL4246352L
(F1.0
L4246443L
tp771
sL4221781L
(F2.000734748063475
L4221786L
tp772
sL4205398L
(F121.38508719098448
L4205409L
tp773
sL4213592L
(F2.0
L4213596L
tp774
sL4221786L
(F195.04761904761904
L4221800L
tp775
sL4213596L
(F1.0
L4213668L
tp776
sL4205409L
(F242.77017438196896
L4205422L
tp777
sL4254563L
(F481.88235294117646
L4254569L
tp778
sL4262760L
(F4.0
L4262783L
tp779
sL4254569L
(F481.88235294117646
L4254584L
tp780
sL4205422L
(F485.5403487639379
L4205458L
tp781
sL4221808L
(F1.0
L4221842L
tp782
sL4254584L
(F120.47058823529412
L4254590L
tp783
sL4232864L
(F1.0
L4232912L
tp784
sL4254590L
(F120.47058823529412
L4254598L
tp785
sL4262783L
(F8.0
L4262792L
tp786
sL4216640L
(F859.4885245901639
L4216648L
tp787
sL4254598L
(F240.94117647058823
L4254603L
tp788
sL4262792L
(F5.291989664082688
L4262794L
tp789
sL4262794L
(F4.695901404413872
L4262824L
tp790
sL4254603L
(F481.88235294117646
L4254655L
tp791
sL4238222L
(F170.66666666666666
L4238235L
tp792
sL4221842L
(F2.0
L4221860L
tp793
sL4238235L
(F56.888888888888886
L4238399L
tp794
sL4226864L
(F2.0
L4226876L
tp795
sL4221860L
(F4.0
L4221870L
tp796
sL4221870L
(F1.3333333333333333
L4221883L
tp797
sL4213680L
(F1.0
L4213775L
tp798
sL4257608L
(F2.0
L4257623L
tp799
sL4205494L
(F1942.1613950557517
L4205503L
tp800
sL4230075L
(F490363.0422149279
L4230103L
tp801
sL4205503L
(F1942.1613950557517
L4205562L
tp802
sL4221888L
(F4.0
L4221937L
tp803
sL4254659L
(F240.94117647058823
L4254676L
tp804
sL4222113L
(F2.0
L4222143L
tp805
sL4254676L
(F481.88235294117646
L4254689L
tp806
sL4230103L
(F1961452.1688597116
L4230136L
tp807
sL4246492L
(F1.3333333333333333
L4246499L
tp808
sL4254689L
(F963.7647058823529
L4254751L
tp809
sL4246512L
(F1.0
L4246530L
tp810
sL4230136L
(F980726.0844298558
L4230165L
tp811
sL4205562L
(F128.0
L4205573L
tp812
sL4221952L
(F1.0
L4222018L
tp813
sL4246530L
(F2.0
L4246538L
tp814
sL4205573L
(F256.0
L4205584L
tp815
sL4246538L
(F1.0
L4246555L
tp816
sL4233047L
(F128.0
L4233079L
tp817
sL4213775L
(F2.0
L4213777L
tp818
sL4205584L
(F512.0
L4205595L
tp819
sL4213784L
(F2.0
L4213820L
tp820
sL4205595L
(F1024.0
L4205600L
tp821
sL4254751L
(F1927.5294117647059
L4254770L
tp822
sL4205600L
(F335.08190696838363
L4205640L
tp823
sL4254770L
(F240.94117647058823
L4254786L
tp824
sL4238399L
(F7.160839160839161
L4238401L
tp825
sL4213824L
(F4.0
L4213824L
tp826
sL4238401L
(F4.257796257796258
L4238416L
tp827
sL4222018L
(F2.0
L4222077L
tp828
sL4254789L
(F481.88235294117646
L4254796L
tp829
sL4205640L
(F30.541650851730996
L4205657L
tp830
sL4213834L
(F2.0
L4213856L
tp831
sL4254796L
(F963.7647058823529
L4254804L
tp832
sL4207117L
(F1344.0
L4207164L
tp833
sL4238416L
(F170.66666666666666
L4238423L
tp834
sL4254804L
(F19.469994058229354
L4254822L
tp835
sL4246613L
(F2.0
L4246616L
tp836
sL4238423L
(F682.6666666666666
L4238431L
tp837
sL4246616L
(F2.0
L4246633L
tp838
sL4205657L
(F61.08330170346199
L4205667L
tp839
sL4238431L
(F10.502564102564103
L4238575L
tp840
sL4213856L
(F4.0
L4213872L
tp841
sL4205667L
(F16.0
L4205692L
tp842
sL4230245L
(F1.0607276964910008
L4230271L
tp843
sL4254822L
(F38.93998811645871
L4254832L
tp844
sL4246633L
(F4.0
L4246649L
tp845
sL4256877L
(F1927.5294117647059
L4256894L
tp846
sL4213872L
(F2.0
L4213877L
tp847
sL4213880L
(F4.0
L4213887L
tp848
sL4246649L
(F1.6
L4246670L
tp849
sL4205692L
(F15.272727272727272
L4205729L
tp850
sL4230271L
(F2.1214553929820017
L4230289L
tp851
sL4222080L
(F0.6671009771986971
L4222110L
tp852
sL4263104L
(F128.0
L4263216L
tp853
sL4263046L
(F170.66666666666666
L4263057L
tp854
sL4254857L
(F25.959992077639136
L4254905L
tp855
sL4246670L
(F2.0
L4246675L
tp856
sL4263057L
(F341.3333333333333
L4263066L
tp857
sL4246675L
(F4.0
L4246736L
tp858
sL4220782L
(F349525.3333333333
L4220803L
tp859
sL4230296L
(F2.0
L4230333L
tp860
sL4263066L
(F682.6666666666666
L4263088L
tp861
sL4222110L
(F1.3342019543973942
L4222113L
tp862
sL4205729L
(F335.08190696838363
L4205761L
tp863
sL4263088L
(F227.55555555555554
L4263100L
tp864
sL4254905L
(F28.516385194854642
L4254912L
tp865
sL4230333L
(F4.0
L4230346L
tp866
sL4222143L
(F4.0
L4222161L
tp867
sL4254912L
(F28.516385194854642
L4254930L
tp868
sL4205761L
(F204.8
L4205770L
tp869
sL4230346L
(F4.0
L4230393L
tp870
sL4246736L
(F1.0
L4246744L
tp871
sL4222161L
(F8.0
L4222190L
tp872
sL4254930L
(F57.032770389709285
L4254942L
tp873
sL4205780L
(F293.26826729540585
L4205790L
tp874
sL4246744L
(F2.0
L4246772L
tp875
sL4205790L
(F586.5365345908117
L4205800L
tp876
sL4254951L
(F19.010923463236427
L4254974L
tp877
sL4205800L
(F586.5365345908117
L4205832L
tp878
sL4222190L
(F16.0
L4222218L
tp879
sL4238576L
(F1.0
L4238592L
tp880
sL4214003L
(F4.0
L4214023L
tp881
sL4246776L
(F4.0
L4246781L
tp882
sL4230393L
(F8.0
L4230417L
tp883
sL4246781L
(F2.0
L4246850L
tp884
sL4254974L
(F38.021846926472854
L4254992L
tp885
sL4238592L
(F1.0
L4238626L
tp886
sL4214023L
(F2.0
L4214031L
tp887
sL4205832L
(F1173.0730691816234
L4205904L
tp888
sL4222218L
(F32.0
L4222227L
tp889
sL4214031L
(F4.0
L4214047L
tp890
sL4254992L
(F481.88235294117646
L4255008L
tp891
sL4230417L
(F16.0
L4230428L
tp892
sL4222227L
(F64.0
L4222232L
tp893
sL4222232L
(F32.0
L4222449L
tp894
sL4230428L
(F16.0
L4230478L
tp895
sL4214048L
(F8.0
L4214099L
tp896
sL4238626L
(F2.0
L4238632L
tp897
sL4238632L
(F2.0
L4238708L
tp898
sL4255024L
(F240.94117647058823
L4255031L
tp899
sL4253056L
(F1.0
L4253152L
tp900
sL4254942L
(F28.516385194854642
L4254951L
tp901
sL4255031L
(F963.7647058823529
L4255042L
tp902
sL4255042L
(F4.0
L4255065L
tp903
sL4230478L
(F32.0
L4230506L
tp904
sL4246863L
(F8.0
L4246864L
tp905
sL4246864L
(F4.0
L4246878L
tp906
sL4263250L
(F256.0
L4263258L
tp907
sL4214104L
(F16.0
L4214117L
tp908
sL4255065L
(F8.0
L4255104L
tp909
sL4263258L
(F512.0
L4263279L
tp910
sL4205917L
(F6.079575384859009
L4205928L
tp911
sL4246878L
(F1.3333333333333333
L4246880L
tp912
sL4246880L
(F1.0
L4246908L
tp913
sL4257680L
(F1.0
L4257725L
tp914
sL4214117L
(F16.0
L4214137L
tp915
sL4205928L
(F12.159150769718018
L4205934L
tp916
sL4230506L
(F64.0
L4230516L
tp917
sL4205934L
(F6.079575384859009
L4205944L
tp918
sL4263280L
(F682.6666666666666
L4263292L
tp919
sL4213992L
(F4.0
L4214003L
tp920
sL4230516L
(F98.6987951807229
L4230528L
tp921
sL4205944L
(F12.159150769718018
L4205950L
tp922
sL4214137L
(F8.0
L4214145L
tp923
sL4246908L
(F2.0
L4246917L
tp924
sL4205950L
(F8.106100513145345
L4205963L
tp925
sL4230528L
(F40.354679802955665
L4230537L
tp926
sL4214145L
(F16.0
L4214161L
tp927
sL4246917L
(F1.0
L4246935L
tp928
sL4230537L
(F80.70935960591133
L4230545L
tp929
sL4244884L
(F4.0
L4245069L
tp930
sL4205963L
(F16.21220102629069
L4205977L
tp931
sL4214161L
(F2.0
L4214208L
tp932
sL4246935L
(F1.0666666666666667
L4246936L
tp933
sL4263320L
(F2.0
L4263333L
tp934
sL4205977L
(F32.42440205258138
L4206009L
tp935
sL4238752L
(F1.0
L4238762L
tp936
sL4263333L
(F4.0
L4263380L
tp937
sL4246953L
(F2.0
L4246959L
tp938
sL4238768L
(F1.0
L4238790L
tp939
sL4206009L
(F21.61626803505425
L4206030L
tp940
sL4214208L
(F1.8823529411764706
L4214242L
tp941
sL4246977L
(F4.0
L4246994L
tp942
sL4248140L
(F1.6
L4248151L
tp943
sL4230605L
(F322.8374384236453
L4230633L
tp944
sL4206030L
(F3.741277159913236
L4206037L
tp945
sL4244045L
(F1.0
L4244068L
tp946
sL4238800L
(F1.0
L4238822L
tp947
sL4246994L
(F8.0
L4247011L
tp948
sL4263380L
(F16.0
L4263390L
tp949
sL4206037L
(F7.482554319826472
L4206055L
tp950
sL4255196L
(F4.0
L4255275L
tp951
sL4263392L
(F1.0
L4263492L
tp952
sL4214242L
(F3.764705882352941
L4214255L
tp953
sL4247011L
(F16.0
L4247072L
tp954
sL4206055L
(F2.993021727930589
L4206095L
tp955
sL4230633L
(F645.6748768472906
L4230676L
tp956
sL4214255L
(F3.764705882352941
L4214260L
tp957
sL4238832L
(F1.0
L4238847L
tp958
sL4222449L
(F64.0
L4222482L
tp959
sL4238847L
(F2.0
L4238866L
tp960
sL4214272L
(F1.0
L4214318L
tp961
sL4201728L
(F81.44440227128266
L4201767L
tp962
sL4248151L
(F3.2
L4248157L
tp963
sL4206095L
(F2.4941847732754905
L4206106L
tp964
sL4222482L
(F128.0
L4222510L
tp965
sL4230676L
(F1291.3497536945813
L4230680L
tp966
sL4238871L
(F8.0
L4238877L
tp967
sL4230680L
(F645.6748768472906
L4230691L
tp968
sL4206106L
(F4.988369546550981
L4206115L
tp969
sL4238877L
(F16.0
L4238879L
tp970
sL4238880L
(F1.1851851851851851
L4238883L
tp971
sL4247074L
(F16.0
L4247129L
tp972
sL4230691L
(F645.6748768472906
L4230705L
tp973
sL4238888L
(F5.333333333333333
L4238899L
tp974
sL4255275L
(F4.0
L4255306L
tp975
sL4222510L
(F256.0
L4222555L
tp976
sL4230705L
(F645.6748768472906
L4230721L
tp977
sL4238899L
(F10.666666666666666
L4238918L
tp978
sL4214328L
(F0.36273467941905774
L4214335L
tp979
sL4214335L
(F1.3333333333333333
L4214344L
tp980
sL4230721L
(F1291.3497536945813
L4230736L
tp981
sL4263492L
(F2.0
L4263502L
tp982
sL4206149L
(F1.2470923866377452
L4206205L
tp983
sL4214344L
(F0.9078014184397163
L4214374L
tp984
sL4255306L
(F8.0
L4255312L
tp985
sL4263502L
(F4.0
L4263514L
tp986
sL4230736L
(F2582.6995073891626
L4230751L
tp987
sL4244068L
(F2.0
L4244112L
tp988
sL4263514L
(F2.0
L4263541L
tp989
sL4222555L
(F512.0
L4222588L
tp990
sL4230751L
(F5165.399014778325
L4230766L
tp991
sL4238944L
(F2.0
L4238968L
tp992
sL4255330L
(F16.0
L4255349L
tp993
sL4214374L
(F1.8156028368794326
L4214376L
tp994
sL4214376L
(F1.8059964726631392
L4214407L
tp995
sL4230766L
(F10330.79802955665
L4230816L
tp996
sL4210048L
(F2.0
L4210058L
tp997
sL4255349L
(F32.0
L4255368L
tp998
sL4238968L
(F1.0
L4239008L
tp999
sL4222588L
(F1024.0
L4222616L
tp1000
sL4206205L
(F2.4941847732754905
L4206222L
tp1001
sL4247168L
(F16.0
L4247174L
tp1002
sL4247174L
(F32.0
L4247212L
tp1003
sL4214407L
(F1.890170742962621
L4214420L
tp1004
sL4255368L
(F32.0
L4255410L
tp1005
sL4206222L
(F1.2470923866377452
L4206241L
tp1006
sL4222616L
(F2048.0
L4222662L
tp1007
sL4214428L
(F7.223985890652557
L4214435L
tp1008
sL4230816L
(F645.6748768472906
L4230830L
tp1009
sL4235888L
(F36.57142857142857
L4235895L
tp1010
sL4214435L
(F7.148342059336824
L4214493L
tp1011
sL4239019L
(F4.0
L4239027L
tp1012
sL4247212L
(F16.0
L4247218L
tp1013
sL4230830L
(F645.6748768472906
L4230850L
tp1014
sL4206255L
(F1.6627898488503272
L4206266L
tp1015
sL4247218L
(F32.0
L4247224L
tp1016
sL4239027L
(F2.0
L4239175L
tp1017
sL4200393L
(F93.0909090909091
L4200398L
tp1018
sL4247224L
(F32.0
L4247244L
tp1019
sL4206266L
(F3.3255796977006544
L4206278L
tp1020
sL4255008L
(F1927.5294117647059
L4255024L
tp1021
sL4230850L
(F1291.3497536945813
L4230868L
tp1022
sL4206278L
(F6.651159395401309
L4206283L
tp1023
sL4255434L
(F32.0
L4255453L
tp1024
sL4206283L
(F3.3255796977006544
L4206305L
tp1025
sL4247244L
(F64.0
L4247248L
tp1026
sL4200704L
(F41.885238371047954
L4200764L
tp1027
sL4222672L
(F2048.0
L4222742L
tp1028
sL4263635L
(F2.0
L4263659L
tp1029
sL4230868L
(F2582.6995073891626
L4230927L
tp1030
sL4214493L
(F7.148342059336824
L4214522L
tp1031
sL4206305L
(F6.651159395401309
L4206316L
tp1032
sL4255461L
(F128.0
L4255535L
tp1033
sL4204497L
(F672.0
L4204508L
tp1034
sL4263659L
(F4.0
L4263680L
tp1035
sL4206316L
(F13.302318790802618
L4206327L
tp1036
sL4200402L
(F32.0
L4200408L
tp1037
sL4206327L
(F2.8004881664847616
L4206371L
tp1038
sL4247295L
(F21.333333333333332
L4247322L
tp1039
sL4214528L
(F2.6666666666666665
L4214546L
tp1040
sL4223616L
(F2.2857142857142856
L4223752L
tp1041
sL4230928L
(F64.0
L4230975L
tp1042
sL4214546L
(F5.333333333333333
L4214561L
tp1043
sL4216528L
(F107.43606557377049
L4216597L
tp1044
sL4222752L
(F1.3342019543973942
L4222768L
tp1045
sL4214561L
(F10.666666666666666
L4214580L
tp1046
sL4206371L
(F5.600976332969523
L4206401L
tp1047
sL4263726L
(F16.0
L4263795L
tp1048
sL4255535L
(F256.0
L4255562L
tp1049
sL4222768L
(F0.8003126221180149
L4222787L
tp1050
sL4209971L
(F2.0
L4209981L
tp1051
sL4214580L
(F21.333333333333332
L4214589L
tp1052
sL4214589L
(F42.666666666666664
L4214601L
tp1053
sL4230975L
(F128.0
L4231003L
tp1054
sL4206401L
(F64.0
L4206410L
tp1055
sL4222787L
(F1.6006252442360298
L4222805L
tp1056
sL4239175L
(F4.0
L4239179L
tp1057
sL4214601L
(F85.33333333333333
L4214609L
tp1058
sL4206410L
(F128.0
L4206415L
tp1059
sL4239179L
(F8.0
L4239196L
tp1060
sL4255565L
(F51.2
L4255578L
tp1061
sL4206415L
(F335.08190696838363
L4206444L
tp1062
sL4214609L
(F170.66666666666666
L4214623L
tp1063
sL4222805L
(F1.6006252442360298
L4222810L
tp1064
sL4255578L
(F64.0
L4255587L
tp1065
sL4231003L
(F256.0
L4231031L
tp1066
sL4247389L
(F2.0
L4247392L
tp1067
sL4214623L
(F341.3333333333333
L4214632L
tp1068
sL4222816L
(F1.0
L4222873L
tp1069
sL4244112L
(F4.0
L4244146L
tp1070
sL4255587L
(F128.0
L4255659L
tp1071
sL4214632L
(F682.6666666666666
L4214641L
tp1072
sL4206444L
(F575.5794766985025
L4206484L
tp1073
sL4247408L
(F4.0
L4247429L
tp1074
sL4214641L
(F1365.3333333333333
L4214656L
tp1075
sL4263795L
(F16.0
L4263818L
tp1076
sL4231031L
(F512.0
L4231040L
tp1077
sL4239224L
(F4.0
L4239232L
tp1078
sL4231040L
(F1024.0
L4231043L
tp1079
sL4231043L
(F215.57894736842104
L4231056L
tp1080
sL4247429L
(F4.0
L4247441L
tp1081
sL4263818L
(F32.0
L4263827L
tp1082
sL4246850L
(F4.0
L4246863L
tp1083
sL4231056L
(F431.1578947368421
L4231064L
tp1084
sL4247441L
(F1.6
L4247453L
tp1085
sL4263827L
(F64.0
L4263832L
tp1086
sL4206484L
(F1151.158953397005
L4206496L
tp1087
sL4263832L
(F16.0
L4263848L
tp1088
sL4222873L
(F2.0
L4222886L
tp1089
sL4214685L
(F2.0
L4214720L
tp1090
sL4231072L
(F128.0
L4231125L
tp1091
sL4247461L
(F3.2
L4247464L
tp1092
sL4222886L
(F2.0
L4222898L
tp1093
sL4247464L
(F3.2
L4247482L
tp1094
sL4255659L
(F256.0
L4255686L
tp1095
sL4206509L
(F167.54095348419182
L4206549L
tp1096
sL4222898L
(F1.0
L4222908L
tp1097
sL4235934L
(F64.0
L4235942L
tp1098
sL4247482L
(F3.2
L4247504L
tp1099
sL4222908L
(F2.0
L4222917L
tp1100
sL4208629L
(F2346.146138363247
L4208634L
tp1101
sL4214720L
(F4.0
L4214730L
tp1102
sL4248224L
(F12.8
L4248240L
tp1103
sL4222917L
(F1.0
L4222925L
tp1104
sL4255686L
(F256.0
L4255689L
tp1105
sL4255689L
(F64.0
L4255707L
tp1106
sL4214730L
(F170.66666666666666
L4214742L
tp1107
sL4222925L
(F2.0
L4222933L
tp1108
sL4239312L
(F4.0
L4239343L
tp1109
sL4222933L
(F1.0
L4222941L
tp1110
sL4214742L
(F341.3333333333333
L4214782L
tp1111
sL4255707L
(F7.529411764705882
L4255740L
tp1112
sL4222941L
(F2.0
L4222949L
tp1113
sL4205904L
(F9.119363077288513
L4205917L
tp1114
sL4222949L
(F1.0
L4222957L
tp1115
sL4222957L
(F2.0
L4222965L
tp1116
sL4239343L
(F2.0
L4239404L
tp1117
sL4231153L
(F512.0
L4231160L
tp1118
sL4222965L
(F1.0
L4222973L
tp1119
sL4263927L
(F32.0
L4263939L
tp1120
sL4231160L
(F512.0
L4231176L
tp1121
sL4216831L
(F3437.9540983606557
L4216847L
tp1122
sL4255740L
(F15.058823529411764
L4255751L
tp1123
sL4222973L
(F2.0
L4222981L
tp1124
sL4214782L
(F682.6666666666666
L4214796L
tp1125
sL4206593L
(F223.38793797892242
L4206604L
tp1126
sL4263939L
(F64.0
L4264039L
tp1127
sL4222981L
(F1.0
L4222990L
tp1128
sL4255751L
(F8.0
L4255778L
tp1129
sL4231176L
(F1024.0
L4231200L
tp1130
sL4247563L
(F12.8
L4247572L
tp1131
sL4214796L
(F341.3333333333333
L4214832L
tp1132
sL4222990L
(F2.0
L4222998L
tp1133
sL4234584L
(F334.27407850169357
L4234620L
tp1134
sL4200451L
(F35.73391494002181
L4200460L
tp1135
sL4247572L
(F12.8
L4247577L
tp1136
sL4222998L
(F1.0
L4223007L
tp1137
sL4201817L
(F34.3267107311879
L4201826L
tp1138
sL4223007L
(F2.0
L4223015L
tp1139
sL4247584L
(F1.0
L4247616L
tp1140
sL4227760L
(F8.0
L4227786L
tp1141
sL4255778L
(F8.0
L4255851L
tp1142
sL4223015L
(F1.0
L4223066L
tp1143
sL4231210L
(F4096.0
L4231219L
tp1144
sL4206636L
(F167.54095348419182
L4206672L
tp1145
sL4239408L
(F1.0
L4239471L
tp1146
sL4231219L
(F8192.0
L4231230L
tp1147
sL4248245L
(F14.628571428571428
L4248251L
tp1148
sL4247616L
(F2.0
L4247633L
tp1149
sL4226402L
(F55.351351351351354
L4226415L
tp1150
sL4206672L
(F672.0
L4206682L
tp1151
sL4247633L
(F2.0
L4247642L
tp1152
sL4223066L
(F2.0
L4223075L
tp1153
sL4247648L
(F4.0
L4247667L
tp1154
sL4206689L
(F8.0
L4206714L
tp1155
sL4231267L
(F64.0
L4231297L
tp1156
sL4264039L
(F128.0
L4264056L
tp1157
sL4239471L
(F2.0
L4239492L
tp1158
sL4255856L
(F16.0
L4255897L
tp1159
sL4247667L
(F8.0
L4247670L
tp1160
sL4198517L
(F1.0
L4198522L
tp1161
sL4247670L
(F4.0
L4247686L
tp1162
sL4264056L
(F256.0
L4264070L
tp1163
sL4206714L
(F1075.2
L4206722L
tp1164
sL4214908L
(F341.3333333333333
L4214937L
tp1165
sL4231297L
(F128.0
L4231338L
tp1166
sL4206722L
(F2150.4
L4206728L
tp1167
sL4239492L
(F1.0
L4239673L
tp1168
sL4264070L
(F512.0
L4264128L
tp1169
sL4206728L
(F4300.8
L4206736L
tp1170
sL4207298L
(F8601.6
L4207302L
tp1171
sL4206736L
(F8601.6
L4206744L
tp1172
sL4247703L
(F4.096
L4247711L
tp1173
sL4206744L
(F5734.400000000001
L4206759L
tp1174
sL4255897L
(F32.0
L4255953L
tp1175
sL4247712L
(F8.0
L4247795L
tp1176
sL4214950L
(F14.296684118673648
L4214976L
tp1177
sL4206759L
(F1151.158953397005
L4206822L
tp1178
sL4200477L
(F142.93565976008725
L4200490L
tp1179
sL4198576L
(F1.0
L4198576L
tp1180
sL4238708L
(F4.0
L4238746L
tp1181
sL4214976L
(F341.3333333333333
L4214988L
tp1182
sL4253729L
(F256.0
L4253736L
tp1183
sL4214988L
(F682.6666666666666
L4215003L
tp1184
sL4231376L
(F5.953488372093023
L4231387L
tp1185
sL4255960L
(F128.0
L4255973L
tp1186
sL4215003L
(F1365.3333333333333
L4215005L
tp1187
sL4215005L
(F682.6666666666666
L4215025L
tp1188
sL4198624L
(F1.0
L4198624L
tp1189
sL4206822L
(F2302.31790679401
L4206841L
tp1190
sL4255976L
(F128.0
L4255997L
tp1191
sL4226428L
(F6.918918918918919
L4226441L
tp1192
sL4253736L
(F51.2
L4253747L
tp1193
sL4247795L
(F16.0
L4247800L
tp1194
sL4247800L
(F32.0
L4247809L
tp1195
sL4206841L
(F4604.63581358802
L4206854L
tp1196
sL4255997L
(F256.0
L4256130L
tp1197
sL4215040L
(F1.0
L4215045L
tp1198
sL4247809L
(F64.0
L4247861L
tp1199
sL4206854L
(F9209.27162717604
L4206866L
tp1200
sL4215056L
(F1.0
L4215061L
tp1201
sL4206866L
(F18418.54325435208
L4206874L
tp1202
sL4247642L
(F4.0
L4247648L
tp1203
sL4206874L
(F2046.50480603912
L4206919L
tp1204
sL4215072L
(F1.0
L4215096L
tp1205
sL4208689L
(F4692.292276726494
L4208696L
tp1206
sL4223282L
(F2.6666666666666665
L4223295L
tp1207
sL4204595L
(F1344.0
L4204665L
tp1208
sL4247861L
(F21.333333333333332
L4247871L
tp1209
sL4215096L
(F2.0
L4215106L
tp1210
sL4264252L
(F1024.0
L4264260L
tp1211
sL4223295L
(F5.333333333333333
L4223302L
tp1212
sL4231488L
(F1291.3497536945813
L4231604L
tp1213
sL4215106L
(F1.0
L4215122L
tp1214
sL4264260L
(F1024.0
L4264266L
tp1215
sL4223302L
(F1.1428571428571428
L4223310L
tp1216
sL4206919L
(F71.94743458731281
L4206945L
tp1217
sL4247881L
(F85.33333333333333
L4247891L
tp1218
sL4264266L
(F512.0
L4264296L
tp1219
sL4223310L
(F1.1428571428571428
L4223322L
tp1220
sL4198736L
(F1.0
L4198736L
tp1221
sL4208696L
(F50.454755663725734
L4208730L
tp1222
sL4215122L
(F2.0
L4215127L
tp1223
sL4247891L
(F170.66666666666666
L4247901L
tp1224
sL4223322L
(F1.1428571428571428
L4223334L
tp1225
sL4247901L
(F20.07843137254902
L4247907L
tp1226
sL4215136L
(F4.0
L4215179L
tp1227
sL4206945L
(F143.89486917462563
L4206970L
tp1228
sL4223334L
(F1.1428571428571428
L4223345L
tp1229
sL4230545L
(F161.41871921182266
L4230605L
tp1230
sL4264296L
(F512.0
L4264304L
tp1231
sL4247920L
(F21.333333333333332
L4247922L
tp1232
sL4223345L
(F1.1428571428571428
L4223358L
tp1233
sL4247922L
(F64.0
L4247969L
tp1234
sL4206970L
(F287.78973834925125
L4206983L
tp1235
sL4223358L
(F1.1428571428571428
L4223370L
tp1236
sL4200512L
(F5.235654796380994
L4200607L
tp1237
sL4256130L
(F512.0
L4256162L
tp1238
sL4206983L
(F191.8598255661675
L4207008L
tp1239
sL4223370L
(F1.1428571428571428
L4223382L
tp1240
sL4215184L
(F2.0
L4215218L
tp1241
sL4255128L
(F8.0
L4255196L
tp1242
sL4239763L
(F2.0
L4239780L
tp1243
sL4223382L
(F1.1428571428571428
L4223408L
tp1244
sL4264345L
(F1024.0
L4264367L
tp1245
sL4207008L
(F672.0
L4207038L
tp1246
sL4247969L
(F1.3438320209973753
L4247974L
tp1247
sL4256162L
(F256.0
L4256186L
tp1248
sL4239780L
(F1.0
L4239811L
tp1249
sL4247974L
(F1.2595325953259533
L4247989L
tp1250
sL4264367L
(F2048.0
L4264422L
tp1251
sL4223408L
(F2.2857142857142856
L4223430L
tp1252
sL4215218L
(F2.0
L4215223L
tp1253
sL4231608L
(F1291.3497536945813
L4231715L
tp1254
sL4256186L
(F256.0
L4256210L
tp1255
sL4207038L
(F672.0
L4207084L
tp1256
sL4215232L
(F1.0
L4215288L
tp1257
sL4246944L
(F2.0
L4246953L
tp1258
sL4223430L
(F2.2857142857142856
L4223443L
tp1259
sL4201889L
(F137.3068429247516
L4201896L
tp1260
sL4239816L
(F2.0
L4239823L
tp1261
sL4239824L
(F1.0
L4239830L
tp1262
sL4256210L
(F32.0
L4256262L
tp1263
sL4223443L
(F4.571428571428571
L4223452L
tp1264
sL4239830L
(F2.0
L4239911L
tp1265
sL4248025L
(F2.0
L4248053L
tp1266
sL4208928L
(F4.988369546550981
L4209033L
tp1267
sL4223452L
(F9.142857142857142
L4223470L
tp1268
sL4264422L
(F4096.0
L4264450L
tp1269
sL4207084L
(F672.0
L4207117L
tp1270
sL4223470L
(F4.571428571428571
L4223487L
tp1271
sL4248053L
(F4.0
L4248077L
tp1272
sL4223487L
(F2.2857142857142856
L4223500L
tp1273
sL4215296L
(F2.0
L4215296L
tp1274
sL4231936L
(F1.0893617021276596
L4231958L
tp1275
sL4264450L
(F8192.0
L4264480L
tp1276
sL4256262L
(F64.0
L4256404L
tp1277
sL4223500L
(F1.0
L4223523L
tp1278
sL4248077L
(F8.0
L4248129L
tp1279
sL4201903L
(F549.2273716990064
L4201947L
tp1280
sL4264480L
(F4096.0
L4264485L
tp1281
sL4246960L
(F2.0
L4246977L
tp1282
sL4223523L
(F2.0
L4223541L
tp1283
sL4264485L
(F8192.0
L4264556L
tp1284
sL4239911L
(F1.0
L4239913L
tp1285
sL4231720L
(F1291.3497536945813
L4231818L
tp1286
sL4228787L
(F15323.845069216497
L4228800L
tp1287
sL4239920L
(F1.0
L4239989L
tp1288
sL4223544L
(F2.0
L4223564L
tp1289
sL4207164L
(F672.0
L4207191L
tp1290
sL4215359L
(F1.0
L4215388L
tp1291
sL4248129L
(F16.0
L4248133L
tp1292
sL4248133L
(F8.0
L4248140L
tp1293
sL4223564L
(F2.0
L4223577L
tp1294
sL4210104L
(F1.0
L4210140L
tp1295
sL4207191L
(F357.4207007662759
L4207208L
tp1296
sL4215388L
(F2.0
L4215470L
tp1297
sL4248157L
(F6.4
L4248169L
tp1298
sL4223584L
(F4.0
L4223600L
tp1299
sL4240144L
(F1.0
L4243936L
tp1300
sL4207208L
(F61.08330170346199
L4207218L
tp1301
sL4248169L
(F4.266666666666667
L4248204L
tp1302
sL4264556L
(F16384.0
L4264578L
tp1303
sL4223600L
(F8.0
L4223609L
tp1304
sL4207218L
(F446.77587595784485
L4207229L
tp1305
sL4207229L
(F893.5517519156897
L4207259L
tp1306
sL4240000L
(F1.0
L4240009L
tp1307
sL4264578L
(F32768.0
L4264591L
tp1308
sL4218305L
(F4.0
L4218307L
tp1309
sL4240009L
(F2.0
L4240023L
tp1310
sL4231818L
(F2.1214553929820017
L4231823L
tp1311
sL4248204L
(F2.4320445320654063
L4248209L
tp1312
sL4231823L
(F53.80623973727422
L4231831L
tp1313
sL4248209L
(F1.1026712601838204
L4248224L
tp1314
sL4256404L
(F128.0
L4256437L
tp1315
sL4240023L
(F1.3333333333333333
L4240052L
tp1316
sL4207259L
(F4300.8
L4207267L
tp1317
sL4264605L
(F512.0
L4264640L
tp1318
sL4231840L
(F1.0
L4231897L
tp1319
sL4207267L
(F8601.6
L4207275L
tp1320
sL4200464L
(F71.46782988004362
L4200473L
tp1321
sL4219676L
(F1.3333333333333333
L4219678L
tp1322
sL4207275L
(F3440.64
L4207290L
tp1323
sL4215470L
(F4.0
L4215474L
tp1324
sL4248240L
(F7.314285714285714
L4248245L
tp1325
sL4215474L
(F2.2857142857142856
L4215490L
tp1326
sL4240052L
(F2.6666666666666665
L4240065L
tp1327
sL4256437L
(F512.0
L4256461L
tp1328
sL4207290L
(F4300.8
L4207298L
tp1329
sL4248251L
(F29.257142857142856
L4248311L
tp1330
sL4264640L
(F512.0
L4264750L
tp1331
sL4239200L
(F2.0
L4239219L
tp1332
sL4215490L
(F2.0
L4215519L
tp1333
sL4207302L
(F17203.2
L4207307L
tp1334
sL4240072L
(F2.6666666666666665
L4240141L
tp1335
sL4207307L
(F12.159150769718018
L4207324L
tp1336
sL4256461L
(F128.0
L4256486L
tp1337
sL4253816L
(F256.0
L4253844L
tp1338
sL4238928L
(F1.0
L4238944L
tp1339
sL4231897L
(F2.0
L4231912L
tp1340
sL4207324L
(F9.727320615774413
L4207337L
tp1341
sL4215519L
(F4.0
L4215548L
tp1342
sL4256486L
(F15.058823529411764
L4256509L
tp1343
sL4231912L
(F4.0
L4231924L
tp1344
sL4207337L
(F80.19141146710908
L4207347L
tp1345
sL4259282L
(F256.0
L4259390L
tp1346
sL4215592L
(F3.2
L4215652L
tp1347
sL4207347L
(F160.38282293421815
L4207421L
tp1348
sL4231924L
(F8.0
L4231929L
tp1349
sL4216786L
(F3437.9540983606557
L4216794L
tp1350
sL4248311L
(F58.51428571428571
L4248321L
tp1351
sL4231929L
(F16.0
L4231936L
tp1352
sL4215548L
(F8.0
L4215557L
tp1353
sL4256509L
(F30.11764705882353
L4256517L
tp1354
sL4199168L
(F1.0
L4199168L
tp1355
sL4248321L
(F29.257142857142856
L4248335L
tp1356
sL4256517L
(F60.23529411764706
L4256576L
tp1357
sL4215560L
(F2.0
L4215583L
tp1358
sL4240141L
(F1.6
L4240143L
tp1359
sL4248335L
(F58.51428571428571
L4248336L
tp1360
sL4248336L
(F58.51428571428571
L4248349L
tp1361
sL4231958L
(F2.178723404255319
L4231969L
tp1362
sL4249296L
(F51.785127053576254
L4249328L
tp1363
sL4248349L
(F117.02857142857142
L4248359L
tp1364
sL4215583L
(F1.6
L4215592L
tp1365
sL4226928L
(F8.0
L4226956L
tp1366
sL4248359L
(F39.00952380952381
L4248381L
tp1367
sL4231976L
(F5.333333333333333
L4232000L
tp1368
sL4264750L
(F1024.0
L4264766L
tp1369
sL4201949L
(F4.64365890636601
L4201978L
tp1370
sL4207421L
(F160.38282293421815
L4207442L
tp1371
sL4264766L
(F128.0
L4264883L
tp1372
sL4232000L
(F5.333333333333333
L4232055L
tp1373
sL4236087L
(F16.0
L4236102L
tp1374
sL4207442L
(F160.38282293421815
L4207449L
tp1375
sL4256600L
(F120.47058823529412
L4256612L
tp1376
sL4207449L
(F320.7656458684363
L4207468L
tp1377
sL4199264L
(F1.0
L4199264L
tp1378
sL4256612L
(F240.94117647058823
L4256667L
tp1379
sL4207468L
(F320.7656458684363
L4207486L
tp1380
sL4248381L
(F16.718367346938777
L4248501L
tp1381
sL4215666L
(F3.40269989615784
L4215704L
tp1382
sL4232055L
(F10.666666666666666
L4232078L
tp1383
sL4207486L
(F641.5312917368726
L4207499L
tp1384
sL4256576L
(F60.23529411764706
L4256594L
tp1385
sL4214656L
(F455.1111111111111
L4214685L
tp1386
sL4207499L
(F160.38282293421815
L4207503L
tp1387
sL4232078L
(F21.333333333333332
L4232101L
tp1388
sL4207503L
(F320.7656458684363
L4207509L
tp1389
sL4207509L
(F641.5312917368726
L4207528L
tp1390
sL4215704L
(F6.80539979231568
L4215712L
tp1391
sL4256667L
(F481.88235294117646
L4256673L
tp1392
sL4215712L
(F6.80539979231568
L4215724L
tp1393
sL4256673L
(F481.88235294117646
L4256688L
tp1394
sL4232101L
(F42.666666666666664
L4232106L
tp1395
sL4207528L
(F641.5312917368726
L4207546L
tp1396
sL4232106L
(F42.666666666666664
L4232130L
tp1397
sL4215724L
(F13.61079958463136
L4215848L
tp1398
sL4199344L
(F1.0
L4199404L
tp1399
sL4264304L
(F512.0
L4264345L
tp1400
sL4256690L
(F120.47058823529412
L4256694L
tp1401
sL4264883L
(F32.0
L4264900L
tp1402
sL4200473L
(F142.93565976008725
L4200477L
tp1403
sL4248501L
(F33.436734693877554
L4248520L
tp1404
sL4256694L
(F240.94117647058823
L4256699L
tp1405
sL4223928L
(F2.2857142857142856
L4224069L
tp1406
sL4207546L
(F320.7656458684363
L4207557L
tp1407
sL4256699L
(F481.88235294117646
L4256737L
tp1408
sL4232130L
(F85.33333333333333
L4232195L
tp1409
sL4264900L
(F64.0
L4264905L
tp1410
sL4207557L
(F641.5312917368726
L4207567L
tp1411
sL4248520L
(F16.718367346938777
L4248527L
tp1412
sL4264905L
(F4.0
L4264931L
tp1413
sL4207567L
(F1283.0625834737452
L4207577L
tp1414
sL4248531L
(F16.718367346938777
L4248593L
tp1415
sL4207577L
(F2566.1251669474905
L4207582L
tp1416
sL4207582L
(F18.238726154577027
L4207614L
tp1417
sL4256737L
(F963.7647058823529
L4256781L
tp1418
sL4264931L
(F16.0
L4264957L
tp1419
sL4199404L
(F2.0
L4199541L
tp1420
sL4256594L
(F120.47058823529412
L4256600L
tp1421
sL4264957L
(F32.0
L4264974L
tp1422
sL4207614L
(F60.69254359549224
L4207672L
tp1423
sL4232195L
(F170.66666666666666
L4232204L
tp1424
sL4226390L
(F27.675675675675677
L4226402L
tp1425
sL4232204L
(F341.3333333333333
L4232241L
tp1426
sL4256781L
(F192.75294117647059
L4256785L
tp1427
sL4264974L
(F32.0
L4265009L
tp1428
sL4263216L
(F128.0
L4263250L
tp1429
sL4248593L
(F2.9204991087344028
L4248602L
tp1430
sL4248602L
(F5.8409982174688055
L4248612L
tp1431
sL4257488L
(F2.6666666666666665
L4257496L
tp1432
sL4256799L
(F481.88235294117646
L4256819L
tp1433
sL4257968L
(F4.0
L4257988L
tp1434
sL4248612L
(F11.681996434937611
L4248627L
tp1435
sL4215848L
(F27.22159916926272
L4215864L
tp1436
sL4260762L
(F6100805.818181818
L4260768L
tp1437
sL4265009L
(F64.0
L4265019L
tp1438
sL4248627L
(F23.363992869875222
L4248637L
tp1439
sL4207672L
(F242.77017438196896
L4207704L
tp1440
sL4265019L
(F128.0
L4265029L
tp1441
sL4248637L
(F15.575995246583481
L4248644L
tp1442
sL4248644L
(F4.247998703613677
L4248655L
tp1443
sL4265029L
(F128.0
L4265075L
tp1444
sL4224072L
(F2.2857142857142856
L4224238L
tp1445
sL4215883L
(F108.88639667705088
L4215897L
tp1446
sL4248655L
(F8.495997407227353
L4248667L
tp1447
sL4232272L
(F10.666666666666666
L4232277L
tp1448
sL4232277L
(F10.666666666666666
L4232300L
tp1449
sL4207704L
(F242.77017438196896
L4207732L
tp1450
sL4215652L
(F3.619773543220105
L4215666L
tp1451
sL4248667L
(F16.991994814454706
L4248702L
tp1452
sL4226576L
(F32.0
L4226587L
tp1453
sL4232300L
(F21.333333333333332
L4232369L
tp1454
sL4238866L
(F4.0
L4238871L
tp1455
sL4265075L
(F128.0
L4265087L
tp1456
sL4207732L
(F71.94743458731281
L4207808L
tp1457
sL4199544L
(F1.0
L4199551L
tp1458
sL4248702L
(F33.98398962890941
L4248729L
tp1459
sL4265087L
(F209.21308858739027
L4265097L
tp1460
sL4215939L
(F2.201663450344218
L4215954L
tp1461
sL4265097L
(F418.42617717478055
L4265104L
tp1462
sL4265104L
(F836.8523543495611
L4265117L
tp1463
sL4256913L
(F963.7647058823529
L4256920L
tp1464
sL4210201L
(F8.0
L4210216L
tp1465
sL4215960L
(F4.0
L4215980L
tp1466
sL4248729L
(F16.991994814454706
L4248787L
tp1467
sL4199578L
(F4.0
L4199592L
tp1468
sL4265117L
(F1673.7047086991222
L4265126L
tp1469
sL4256928L
(F1285.0196078431372
L4256938L
tp1470
sL4265126L
(F3347.4094173982444
L4265147L
tp1471
sL4199592L
(F8.0
L4199616L
tp1472
sL4256938L
(F19.76953242835596
L4256959L
tp1473
sL4215980L
(F8.0
L4215997L
tp1474
sL4232369L
(F42.666666666666664
L4232378L
tp1475
sL4232378L
(F85.33333333333333
L4232436L
tp1476
sL4265147L
(F6694.818834796489
L4265163L
tp1477
sL4215997L
(F16.0
L4216016L
tp1478
sL4256959L
(F39.53906485671192
L4256970L
tp1479
sL4207808L
(F143.89486917462563
L4207813L
tp1480
sL4247072L
(F32.0
L4247074L
tp1481
sL4207813L
(F404.5432098765432
L4207833L
tp1482
sL4199626L
(F2.0
L4199690L
tp1483
sL4265163L
(F6694.818834796489
L4265189L
tp1484
sL4216016L
(F2.0
L4216053L
tp1485
sL4256977L
(F79.07812971342383
L4257012L
tp1486
sL4206115L
(F2.4941847732754905
L4206149L
tp1487
sL4248792L
(F8.495997407227353
L4248798L
tp1488
sL4207833L
(F223.38793797892242
L4207865L
tp1489
sL4248798L
(F5.663998271484902
L4248809L
tp1490
sL11363752L
(F1.0
L11363756L
tp1491
sL4265189L
(F13389.637669592978
L4265194L
tp1492
sL4247129L
(F32.0
L4247168L
tp1493
sL4248809L
(F11.327996542969805
L4248818L
tp1494
sL4224240L
(F2.2857142857142856
L4224407L
tp1495
sL4248818L
(F6.473140881697032
L4248836L
tp1496
sL4257012L
(F39.53906485671192
L4257017L
tp1497
sL4216056L
(F6.4
L4216093L
tp1498
sL4207865L
(F335.08190696838363
L4207885L
tp1499
sL4260496L
(F190650.18181818182
L4260526L
tp1500
sL4232445L
(F21.333333333333332
L4232468L
tp1501
sL4265218L
(F418.42617717478055
L4265240L
tp1502
sL4248836L
(F12.946281763394063
L4248840L
tp1503
sL4248840L
(F25.892563526788127
L4248912L
tp1504
sL4199690L
(F2.0
L4199716L
tp1505
sL4207885L
(F6881.28
L4207900L
tp1506
sL4232468L
(F42.666666666666664
L4232528L
tp1507
sL4214318L
(F2.0
L4214323L
tp1508
sL4265240L
(F836.8523543495611
L4265259L
tp1509
sL4207900L
(F521.309090909091
L4207915L
tp1510
sL4216093L
(F12.8
L4216131L
tp1511
sL4199716L
(F4.0
L4199785L
tp1512
sL4257064L
(F481.88235294117646
L4257077L
tp1513
sL4207915L
(F4300.8
L4207930L
tp1514
sL4257080L
(F1927.5294117647059
L4257094L
tp1515
sL4207930L
(F1075.2
L4207945L
tp1516
sL4265280L
(F3347.4094173982444
L4265296L
tp1517
sL4216131L
(F25.6
L4216147L
tp1518
sL4257094L
(F240.94117647058823
L4257101L
tp1519
sL4207945L
(F143.89486917462563
L4208043L
tp1520
sL4257101L
(F963.7647058823529
L4257146L
tp1521
sL4265296L
(F3347.4094173982444
L4265318L
tp1522
sL4218424L
(F2.0
L4218432L
tp1523
sL4216147L
(F12.8
L4216175L
tp1524
sL4232533L
(F170.66666666666666
L4232560L
tp1525
sL4233444L
(F48.76190476190476
L4233463L
tp1526
sL4264591L
(F256.0
L4264605L
tp1527
sL4265318L
(F6694.818834796489
L4265323L
tp1528
sL4265323L
(F256.0
L4265339L
tp1529
sL4216175L
(F25.6
L4216185L
tp1530
sL4232560L
(F14.840579710144928
L4232570L
tp1531
sL4216185L
(F13.429508196721311
L4216199L
tp1532
sL4257146L
(F31.631251885369533
L4257218L
tp1533
sL4265339L
(F512.0
L4265373L
tp1534
sL4232576L
(F1.0
L4232627L
tp1535
sL4218432L
(F2.0
L4218497L
tp1536
sL4216199L
(F13.429508196721311
L4216208L
tp1537
sL4199817L
(F4.0
L4199939L
tp1538
sL4248976L
(F11.327996542969805
L4248987L
tp1539
sL4248987L
(F22.65599308593961
L4249007L
tp1540
sL4265373L
(F1024.0
L4265387L
tp1541
sL4224416L
(F2.2857142857142856
L4224595L
tp1542
sL4216233L
(F53.718032786885246
L4216243L
tp1543
sL4265387L
(F256.0
L4265402L
tp1544
sL4208047L
(F143.89486917462563
L4208059L
tp1545
sL4249008L
(F8.533333333333333
L4249032L
tp1546
sL4232627L
(F2.0
L4232656L
tp1547
sL4265402L
(F512.0
L4265441L
tp1548
sL4235952L
(F2.115702479338843
L4236042L
tp1549
sL4216252L
(F56.74112554112554
L4216291L
tp1550
sL4199551L
(F2.0
L4199578L
tp1551
sL4257218L
(F63.262503770739066
L4257249L
tp1552
sL4249032L
(F17.066666666666666
L4249045L
tp1553
sL4232656L
(F4.0
L4232663L
tp1554
sL4249045L
(F34.13333333333333
L4249054L
tp1555
sL4232663L
(F1.032258064516129
L4232683L
tp1556
sL4249054L
(F68.26666666666667
L4249056L
tp1557
sL4249056L
(F68.26666666666667
L4249072L
tp1558
sL4257249L
(F31.631251885369533
L4257266L
tp1559
sL4216291L
(F6.80539979231568
L4216323L
tp1560
sL4265449L
(F1024.0
L4265476L
tp1561
sL4232683L
(F2.064516129032258
L4232694L
tp1562
sL4249072L
(F136.53333333333333
L4249077L
tp1563
sL4257266L
(F28.516385194854642
L4257275L
tp1564
sL4249080L
(F16.0
L4249089L
tp1565
sL4257275L
(F57.032770389709285
L4257288L
tp1566
sL4232704L
(F8.0
L4232714L
tp1567
sL4217088L
(F859.4885245901639
L4217095L
tp1568
sL4208130L
(F1151.158953397005
L4208161L
tp1569
sL4199939L
(F8.0
L4199953L
tp1570
sL4265476L
(F2048.0
L4265491L
tp1571
sL4249096L
(F11.681996434937611
L4249108L
tp1572
sL4232714L
(F16.0
L4232720L
tp1573
sL4232720L
(F16.0
L4232750L
tp1574
sL4199953L
(F16.0
L4199974L
tp1575
sL4265491L
(F4096.0
L4265504L
tp1576
sL4249108L
(F23.363992869875222
L4249134L
tp1577
sL4255321L
(F16.0
L4255330L
tp1578
sL4265504L
(F4096.0
L4265553L
tp1579
sL4208161L
(F143.89486917462563
L4208205L
tp1580
sL4257316L
(F38.021846926472854
L4257321L
tp1581
sL4199974L
(F32.0
L4199981L
tp1582
sL4215864L
(F54.44319833852544
L4215883L
tp1583
sL4208903L
(F191.8598255661675
L4208928L
tp1584
sL4199981L
(F64.0
L4199992L
tp1585
sL4249134L
(F23.363992869875222
L4249154L
tp1586
sL4257328L
(F1.0
L4257353L
tp1587
sL4232755L
(F10.666666666666666
L4232767L
tp1588
sL4216372L
(F13.61079958463136
L4216390L
tp1589
sL4199992L
(F20.48
L4200000L
tp1590
sL4200000L
(F18.962962962962962
L4200015L
tp1591
sL4249154L
(F46.727985739750444
L4249178L
tp1592
sL4256688L
(F120.47058823529412
L4256690L
tp1593
sL4257353L
(F2.0
L4257365L
tp1594
sL4208205L
(F287.78973834925125
L4208245L
tp1595
sL4200015L
(F11.906976744186046
L4200029L
tp1596
sL4216400L
(F217.77279335410176
L4216418L
tp1597
sL4265553L
(F8192.0
L4265556L
tp1598
sL4265556L
(F2730.6666666666665
L4265570L
tp1599
sL4257365L
(F1.0
L4257391L
tp1600
sL4224600L
(F2.2857142857142856
L4224775L
tp1601
sL4200029L
(F23.813953488372093
L4200036L
tp1602
sL4249184L
(F33.436734693877554
L4249209L
tp1603
sL4265570L
(F1024.0
L4265578L
tp1604
sL4245505L
(F4.0
L4245529L
tp1605
sL4232806L
(F16.0
L4232810L
tp1606
sL4216424L
(F12.8
L4216438L
tp1607
sL4265578L
(F2048.0
L4265595L
tp1608
sL4257391L
(F1.0
L4257433L
tp1609
sL4200052L
(F23.813953488372093
L4200059L
tp1610
sL4208245L
(F16.0
L4208263L
tp1611
sL4216438L
(F25.6
L4216472L
tp1612
sL4265595L
(F862.3157894736842
L4265612L
tp1613
sL4249216L
(F33.98398962890941
L4249244L
tp1614
sL4200497L
(F2.6666666666666665
L4200509L
tp1615
sL4208263L
(F4.988369546550981
L4208316L
tp1616
sL4200075L
(F23.813953488372093
L4200082L
tp1617
sL4265612L
(F1724.6315789473683
L4265647L
tp1618
sL4200082L
(F47.627906976744185
L4200098L
tp1619
sL4232851L
(F2.064516129032258
L4232856L
tp1620
sL4257433L
(F1.0
L4257448L
tp1621
sL4249248L
(F22.65599308593961
L4249269L
tp1622
sL4200098L
(F23.813953488372093
L4200105L
tp1623
sL4257448L
(F2.0
L4257456L
tp1624
sL4200105L
(F47.627906976744185
L4200121L
tp1625
sL4265647L
(F3449.2631578947367
L4265650L
tp1626
sL4257456L
(F4.0
L4257478L
tp1627
sL4265650L
(F3449.2631578947367
L4265701L
tp1628
sL4249269L
(F45.31198617187922
L4249296L
tp1629
sL4200121L
(F23.813953488372093
L4200128L
tp1630
sL4208316L
(F9.976739093101962
L4208321L
tp1631
sL4263541L
(F4.0
L4263560L
tp1632
sL4200128L
(F47.627906976744185
L4200144L
tp1633
sL4208321L
(F219.9512004715544
L4208341L
tp1634
sL4216514L
(F214.87213114754098
L4216519L
tp1635
sL4257478L
(F4.0
L4257488L
tp1636
sL4232912L
(F1.0
L4232937L
tp1637
sL4208341L
(F24.318301539436035
L4208392L
tp1638
sL4200151L
(F47.627906976744185
L4200167L
tp1639
sL4257496L
(F2.6666666666666665
L4257512L
tp1640
sL4248527L
(F33.436734693877554
L4248531L
tp1641
sL4265701L
(F6898.526315789473
L4265706L
tp1642
sL4200167L
(F11.906976744186046
L4200178L
tp1643
sL4257512L
(F5.333333333333333
L4257531L
tp1644
sL4232937L
(F2.0
L4232962L
tp1645
sL4265706L
(F512.0
L4265772L
tp1646
sL4249328L
(F4.0
L4249355L
tp1647
sL4200178L
(F2.0
L4200200L
tp1648
sL4257536L
(F2.0
L4257542L
tp1649
sL4232962L
(F4.0
L4232967L
tp1650
sL4257542L
(F4.0
L4257552L
tp1651
sL4232967L
(F8.0
L4232975L
tp1652
sL4200200L
(F2.0
L4200213L
tp1653
sL4249355L
(F2.6666666666666665
L4249365L
tp1654
sL4232975L
(F16.0
L4232981L
tp1655
sL4257552L
(F4.0
L4257580L
tp1656
sL4216597L
(F214.87213114754098
L4216601L
tp1657
sL4249368L
(F8.0
L4249378L
tp1658
sL4216601L
(F214.87213114754098
L4216611L
tp1659
sL4208410L
(F1942.1613950557517
L4208471L
tp1660
sL4233519L
(F195.04761904761904
L4233531L
tp1661
sL4200225L
(F8.0
L4200236L
tp1662
sL4249378L
(F46.727985739750444
L4249393L
tp1663
sL4216611L
(F429.74426229508197
L4216638L
tp1664
sL4233000L
(F128.0
L4233015L
tp1665
sL4257580L
(F8.0
L4257589L
tp1666
sL4249393L
(F45.31198617187922
L4249401L
tp1667
sL4265781L
(F1024.0
L4265793L
tp1668
sL4233015L
(F256.0
L4233019L
tp1669
sL4249401L
(F46.727985739750444
L4249425L
tp1670
sL4233019L
(F64.0
L4233023L
tp1671
sL4233023L
(F32.0
L4233032L
tp1672
sL4224832L
(F5.333333333333333
L4225023L
tp1673
sL4265793L
(F1024.0
L4265803L
tp1674
sL4257603L
(F4.0
L4257605L
tp1675
sL4216648L
(F859.4885245901639
L4216704L
tp1676
sL4265803L
(F1024.0
L4265819L
tp1677
sL4200269L
(F8.0
L4200281L
tp1678
sL4208471L
(F3884.3227901115033
L4208511L
tp1679
sL4200281L
(F16.0
L4200344L
tp1680
sL4265819L
(F2048.0
L4265861L
tp1681
sL4257632L
(F2.0
L4257661L
tp1682
sL4229435L
(F64.0
L4229440L
tp1683
sL4233079L
(F8.0
L4233110L
tp1684
sL4257661L
(F4.0
L4257674L
tp1685
sL4208511L
(F2.4941847732754905
L4208594L
tp1686
sL4216704L
(F429.74426229508197
L4216764L
tp1687
sL4229440L
(F16.0
L4229451L
tp1688
sL4265861L
(F4096.0
L4265872L
tp1689
sL4265872L
(F4096.0
L4265921L
tp1690
sL4214424L
(F3.6119929453262785
L4214428L
tp1691
sL4233110L
(F2.2857142857142856
L4233118L
tp1692
sL4200344L
(F16.0
L4200348L
tp1693
sL4200348L
(F32.0
L4200358L
tp1694
sL4233118L
(F1.0229700370037589
L4233141L
tp1695
sL4200358L
(F64.0
L4200366L
tp1696
sL4200366L
(F128.0
L4200376L
tp1697
sL4233141L
(F2.0459400740075178
L4233156L
tp1698
sL4200376L
(F256.0
L4200387L
tp1699
sL4216764L
(F859.4885245901639
L4216768L
tp1700
sL4257725L
(F2.0
L4257737L
tp1701
sL4216768L
(F1718.9770491803279
L4216786L
tp1702
sL4265921L
(F2048.0
L4265939L
tp1703
sL4200387L
(F512.0
L4200393L
tp1704
sL4233156L
(F32.0
L4233207L
tp1705
sL4206241L
(F2.4941847732754905
L4206255L
tp1706
sL4257737L
(F4.0
L4257750L
tp1707
sL4200398L
(F47.627906976744185
L4200402L
tp1708
sL4208594L
(F4.988369546550981
L4208599L
tp1709
sL4265939L
(F1365.3333333333333
L4265961L
tp1710
sL4257750L
(F8.0
L4257760L
tp1711
sL4208599L
(F293.26826729540585
L4208609L
tp1712
sL4200408L
(F64.0
L4200412L
tp1713
sL4202145L
(F16.67483481439109
L4202163L
tp1714
sL4216794L
(F6875.9081967213115
L4216804L
tp1715
sL4200412L
(F75.85185185185185
L4200418L
tp1716
sL4257760L
(F8.0
L4257780L
tp1717
sL4208609L
(F586.5365345908117
L4208619L
tp1718
sL4200418L
(F151.7037037037037
L4200425L
tp1719
sL4200785L
(F41.885238371047954
L4200802L
tp1720
sL4216808L
(F3437.9540983606557
L4216818L
tp1721
sL4200425L
(F303.4074074074074
L4200427L
tp1722
sL4200427L
(F121.36296296296297
L4200431L
tp1723
sL4200431L
(F101.1358024691358
L4200437L
tp1724
sL4257780L
(F16.0
L4257787L
tp1725
sL4200437L
(F202.2716049382716
L4200447L
tp1726
sL4233207L
(F21.333333333333332
L4233219L
tp1727
sL4216824L
(F1718.9770491803279
L4216831L
tp1728
sL4265977L
(F5461.333333333333
L4265981L
tp1729
sL4208634L
(F1173.0730691816234
L4208680L
tp1730
sL4257787L
(F5.333333333333333
L4257797L
tp1731
sL4265981L
(F5461.333333333333
L4266030L
tp1732
sL4200447L
(F134.84773662551441
L4200451L
tp1733
sL4225024L
(F4.571428571428571
L4225058L
tp1734
sL4233219L
(F42.666666666666664
L4233232L
tp1735
sL4257797L
(F10.666666666666666
L4257818L
tp1736
sL4217968L
(F2.0
L4217971L
tp1737
sL4200460L
(F71.46782988004362
L4200464L
tp1738
sL4216847L
(F2291.969398907104
L4216857L
tp1739
sL4233232L
(F42.666666666666664
L4233245L
tp1740
sL4216857L
(F1718.9770491803279
L4216871L
tp1741
sL4257818L
(F21.333333333333332
L4257825L
tp1742
sL4233245L
(F21.333333333333332
L4233258L
tp1743
sL4257825L
(F7.111111111111111
L4257835L
tp1744
sL4225058L
(F4.571428571428571
L4225077L
tp1745
sL4216871L
(F572.992349726776
L4216881L
tp1746
sL4208680L
(F2346.146138363247
L4208689L
tp1747
sL4233258L
(F42.666666666666664
L4233271L
tp1748
sL4257835L
(F14.222222222222221
L4257854L
tp1749
sL4255410L
(F64.0
L4255416L
tp1750
sL4266030L
(F2730.6666666666665
L4266048L
tp1751
sL4216881L
(F1145.984699453552
L4216937L
tp1752
sL4233271L
(F85.33333333333333
L4233276L
tp1753
sL4225080L
(F4.571428571428571
L4225152L
tp1754
sL4233276L
(F42.666666666666664
L4233364L
tp1755
sL4200509L
(F5.333333333333333
L4200512L
tp1756
sL4257854L
(F28.444444444444443
L4257861L
tp1757
sL4266048L
(F5461.333333333333
L4266056L
tp1758
sL4257861L
(F9.481481481481481
L4257872L
tp1759
sL4266056L
(F10922.666666666666
L4266095L
tp1760
sL4257872L
(F7.062068965517241
L4257878L
tp1761
sL4255416L
(F64.0
L4255434L
tp1762
sL4257878L
(F4.24896265560166
L4257896L
tp1763
sL4208730L
(F100.90951132745147
L4208758L
tp1764
sL4256785L
(F240.94117647058823
L4256799L
tp1765
sL4216937L
(F352.61067675493905
L4216963L
tp1766
sL4266095L
(F21845.333333333332
L4266103L
tp1767
sL4257904L
(F18.962962962962962
L4257925L
tp1768
sL4255312L
(F8.0
L4255321L
tp1769
sL4208758L
(F201.81902265490294
L4208764L
tp1770
sL4266103L
(F21845.333333333332
L4266134L
tp1771
sL4208764L
(F134.54601510326864
L4208811L
tp1772
sL4225152L
(F2.2857142857142856
L4225191L
tp1773
sL4257925L
(F37.925925925925924
L4257934L
tp1774
sL4216968L
(F1.7777777777777777
L4216978L
tp1775
sL4257936L
(F2.0
L4257963L
tp1776
sL4216978L
(F3.5555555555555554
L4216990L
tp1777
sL4233364L
(F24.38095238095238
L4233444L
tp1778
sL4266134L
(F43690.666666666664
L4266149L
tp1779
sL4216990L
(F7.111111111111111
L4216995L
tp1780
sL4200608L
(F10.471309592761989
L4200615L
tp1781
sL4216995L
(F1.7777777777777777
L4217009L
tp1782
sL4266149L
(F87381.33333333333
L4266160L
tp1783
sL4200615L
(F20.942619185523977
L4200675L
tp1784
sL4257963L
(F4.0
L4257968L
tp1785
sL4266160L
(F87381.33333333333
L4266209L
tp1786
sL4217009L
(F1.72156221473557
L4217036L
tp1787
sL4257988L
(F8.0
L4258000L
tp1788
sL4208841L
(F24.318301539436035
L4208851L
tp1789
sL4217036L
(F429.74426229508197
L4217084L
tp1790
sL4258000L
(F2.6666666666666665
L4258016L
tp1791
sL4208851L
(F14.965108639652945
L4208869L
tp1792
sL4258016L
(F2.6666666666666665
L4258037L
tp1793
sL4266209L
(F174762.66666666666
L4266212L
tp1794
sL4200675L
(F41.885238371047954
L4200692L
tp1795
sL4266212L
(F58254.22222222222
L4266230L
tp1796
sL4208869L
(F29.93021727930589
L4208874L
tp1797
sL4208874L
(F143.89486917462563
L4208890L
tp1798
sL4237616L
(F10.502564102564103
L4237868L
tp1799
sL4200692L
(F41.885238371047954
L4200696L
tp1800
sL4258037L
(F5.333333333333333
L4258064L
tp1801
sL4266230L
(F116508.44444444444
L4266238L
tp1802
sL4233463L
(F97.52380952380952
L4233472L
tp1803
sL4200696L
(F20.942619185523977
L4200704L
tp1804
sL4208890L
(F287.78973834925125
L4208903L
tp1805
sL4217084L
(F429.74426229508197
L4217088L
tp1806
sL4266238L
(F4.0
L4266259L
tp1807
sL4233472L
(F97.52380952380952
L4233489L
tp1808
sL4254081L
(F512.0
L4254117L
tp1809
sL4258064L
(F5.333333333333333
L4258083L
tp1810
sL4233489L
(F195.04761904761904
L4233498L
tp1811
sL4266259L
(F2.0
L4266264L
tp1812
sL4266264L
(F1.560901252798552
L4266283L
tp1813
sL4233504L
(F86.68783068783068
L4233516L
tp1814
sL4258083L
(F10.666666666666666
L4258112L
tp1815
sL4266283L
(F3.121802505597104
L4266301L
tp1816
sL4233516L
(F97.52380952380952
L4233519L
tp1817
sL4255453L
(F64.0
L4255461L
tp1818
sL4256819L
(F963.7647058823529
L4256877L
tp1819
sL4232981L
(F32.0
L4232996L
tp1820
sL4233531L
(F390.0952380952381
L4233536L
tp1821
sL4200764L
(F83.77047674209591
L4200781L
tp1822
sL4266301L
(F7.109568236059883
L4266305L
tp1823
sL4217150L
(F429.74426229508197
L4217208L
tp1824
sL4258112L
(F4.0
L4258128L
tp1825
sL4266305L
(F3.121802505597104
L4266310L
tp1826
sL4266310L
(F512.0
L4266349L
tp1827
sL4233546L
(F1560.3809523809523
L4233556L
tp1828
sL4200781L
(F83.77047674209591
L4200785L
tp1829
sL4217229L
(F3437.9540983606557
L4217237L
tp1830
sL4258128L
(F4.0
L4258149L
tp1831
sL4232248L
(F10.666666666666666
L4232264L
tp1832
sL4233556L
(F445.82312925170066
L4233569L
tp1833
sL4233569L
(F891.6462585034013
L4233576L
tp1834
sL4200802L
(F83.77047674209591
L4200838L
tp1835
sL4258149L
(F8.0
L4258160L
tp1836
sL4233576L
(F145.1517165005537
L4233580L
tp1837
sL4233580L
(F97.52380952380952
L4233591L
tp1838
sL4266349L
(F836.8523543495611
L4266362L
tp1839
sL4258160L
(F8.0
L4258180L
tp1840
sL4233591L
(F195.04761904761904
L4233720L
tp1841
sL4217208L
(F859.4885245901639
L4217212L
tp1842
sL4266362L
(F1024.0
L4266381L
tp1843
sL4217212L
(F1718.9770491803279
L4217229L
tp1844
sL4258180L
(F16.0
L4258196L
tp1845
sL4200838L
(F67.01638139367672
L4200847L
tp1846
sL4209033L
(F9.976739093101962
L4209060L
tp1847
sL4266381L
(F43690.666666666664
L4266389L
tp1848
sL4200847L
(F134.03276278735345
L4200888L
tp1849
sL4217237L
(F6875.9081967213115
L4217247L
tp1850
sL4266400L
(F1.0
L4266442L
tp1851
sL4234992L
(F1.0
L4235093L
tp1852
sL4209060L
(F4.988369546550981
L4209182L
tp1853
sL4217264L
(F1718.9770491803279
L4217274L
tp1854
sL4200888L
(F67.01638139367672
L4200901L
tp1855
sL4217274L
(F3437.9540983606557
L4217290L
tp1856
sL4225472L
(F1.0
L4225629L
tp1857
sL4217248L
(F3437.9540983606557
L4217258L
tp1858
sL4200901L
(F44.67758759578449
L4200913L
tp1859
sL4217290L
(F6875.9081967213115
L4217306L
tp1860
sL4200913L
(F19.85670559812644
L4200925L
tp1861
sL4217306L
(F13751.816393442623
L4217321L
tp1862
sL4200925L
(F13.237803732084291
L4200937L
tp1863
sL4200937L
(F8.825202488056194
L4200954L
tp1864
sL4266480L
(F2.0
L4266518L
tp1865
sL4254120L
(F256.0
L4254143L
tp1866
sL4233720L
(F195.04761904761904
L4233763L
tp1867
sL4200954L
(F41.885238371047954
L4200983L
tp1868
sL4217342L
(F27.22159916926272
L4217391L
tp1869
sL4263680L
(F4.0
L4263715L
tp1870
sL4266518L
(F1.0
L4266551L
tp1871
sL4215897L
(F108.88639667705088
L4215905L
tp1872
sL4209182L
(F100.90951132745147
L4209263L
tp1873
sL4225456L
(F2.0
L4225461L
tp1874
sL4233763L
(F390.0952380952381
L4233772L
tp1875
sL4217391L
(F2291.969398907104
L4217423L
tp1876
sL4233776L
(F346.75132275132273
L4233792L
tp1877
sL4266551L
(F2.0
L4266565L
tp1878
sL4258360L
(F4.0
L4258390L
tp1879
sL4233792L
(F390.0952380952381
L4233795L
tp1880
sL4233795L
(F390.0952380952381
L4233800L
tp1881
sL4266565L
(F4.0
L4266607L
tp1882
sL4215905L
(F6.405082157473581
L4215917L
tp1883
sL4233800L
(F780.1904761904761
L4233807L
tp1884
sL4201035L
(F10.471309592761989
L4201049L
tp1885
sL4233807L
(F780.1904761904761
L4233816L
tp1886
sL4233536L
(F780.1904761904761
L4233546L
tp1887
sL4258390L
(F8.0
L4258432L
tp1888
sL4233816L
(F1560.3809523809523
L4233821L
tp1889
sL4201049L
(F20.942619185523977
L4201061L
tp1890
sL4225629L
(F2.0
L4225637L
tp1891
sL4201061L
(F41.885238371047954
L4201072L
tp1892
sL4233831L
(F6241.523809523809
L4233841L
tp1893
sL4209263L
(F13.302318790802618
L4209322L
tp1894
sL4266608L
(F4.0
L4266624L
tp1895
sL4233841L
(F1783.2925170068027
L4233846L
tp1896
sL4233846L
(F3566.5850340136053
L4233850L
tp1897
sL4233850L
(F1783.2925170068027
L4233867L
tp1898
sL4217469L
(F3055.959198542805
L4217474L
tp1899
sL4266624L
(F4.0
L4266634L
tp1900
sL4258240L
(F1.0
L4258289L
tp1901
sL4217474L
(F1018.6530661809351
L4217493L
tp1902
sL4210624L
(F1.0
L4210640L
tp1903
sL4266634L
(F8.0
L4266664L
tp1904
sL4201099L
(F111.69396898946121
L4201134L
tp1905
sL4215917L
(F1.100831725172109
L4215939L
tp1906
sL4233872L
(F580.6068660022148
L4233912L
tp1907
sL4217493L
(F2037.3061323618701
L4217498L
tp1908
sL4217498L
(F4583.938797814208
L4217525L
tp1909
sL4225704L
(F1.0158730158730158
L4225722L
tp1910
sL4209322L
(F26.604637581605235
L4209367L
tp1911
sL4201134L
(F3.8177063564663745
L4201147L
tp1912
sL4217525L
(F25.6
L4217535L
tp1913
sL4233912L
(F146.00055694792536
L4233971L
tp1914
sL4225722L
(F1.0
L4225746L
tp1915
sL4201147L
(F7.635412712932749
L4201161L
tp1916
sL4266442L
(F1.0
L4266478L
tp1917
sL4217535L
(F51.2
L4217545L
tp1918
sL4258496L
(F32.0
L4258641L
tp1919
sL4247328L
(F4.0
L4247337L
tp1920
sL4201161L
(F15.270825425865498
L4201172L
tp1921
sL4228216L
(F36.57142857142857
L4228230L
tp1922
sL4225746L
(F2.0
L4225756L
tp1923
sL4263715L
(F8.0
L4263726L
tp1924
sL4201172L
(F30.541650851730996
L4201196L
tp1925
sL4209367L
(F6.651159395401309
L4209418L
tp1926
sL4225760L
(F4.0
L4225772L
tp1927
sL4266721L
(F16.0
L4266736L
tp1928
sL4217572L
(F273.06666666666666
L4217610L
tp1929
sL4226456L
(F8.0
L4226464L
tp1930
sL4225772L
(F8.0
L4225784L
tp1931
sL4266736L
(F16.0
L4266744L
tp1932
sL4201201L
(F20.361100567820664
L4201211L
tp1933
sL4233971L
(F292.0011138958507
L4233979L
tp1934
sL4256894L
(F175.22994652406416
L4256913L
tp1935
sL4266744L
(F32.0
L4266769L
tp1936
sL4201211L
(F40.72220113564133
L4201217L
tp1937
sL4201217L
(F18.79486206260369
L4201227L
tp1938
sL4225796L
(F32.0
L4225867L
tp1939
sL4209418L
(F13.302318790802618
L4209429L
tp1940
sL4201227L
(F37.58972412520738
L4201296L
tp1941
sL4217616L
(F51.2
L4217626L
tp1942
sL4266769L
(F32.0
L4266833L
tp1943
sL4248000L
(F1.0
L4248025L
tp1944
sL4209429L
(F26.604637581605235
L4209437L
tp1945
sL4217626L
(F102.4
L4217636L
tp1946
sL4209437L
(F23.648566739204654
L4209482L
tp1947
sL4247344L
(F1.0
L4247389L
tp1948
sL4217636L
(F204.8
L4217646L
tp1949
sL4234022L
(F83.56851962542339
L4234034L
tp1950
sL4217646L
(F409.6
L4217648L
tp1951
sL4217648L
(F3437.9540983606557
L4217693L
tp1952
sL4234034L
(F167.13703925084678
L4234059L
tp1953
sL4202291L
(F167.54095348419182
L4202352L
tp1954
sL4209482L
(F30.34627179774612
L4209497L
tp1955
sL4234059L
(F111.42469283389785
L4234097L
tp1956
sL4225872L
(F2.0
L4225877L
tp1957
sL4266833L
(F64.0
L4266848L
tp1958
sL4201304L
(F75.17944825041477
L4201338L
tp1959
sL4209497L
(F5.600976332969523
L4209533L
tp1960
sL4217693L
(F3055.959198542805
L4217724L
tp1961
sL4266848L
(F1.0
L4266902L
tp1962
sL4225893L
(F2.0
L4225901L
tp1963
sL4225901L
(F2.0
L4225906L
tp1964
sL4234097L
(F222.8493856677957
L4234107L
tp1965
sL4225906L
(F2.6666666666666665
L4225915L
tp1966
sL11363808L
(F1.0
L11363812L
tp1967
sL4217321L
(F25.6
L4217342L
tp1968
sL4201338L
(F75.17944825041477
L4201351L
tp1969
sL4225915L
(F4.0
L4225925L
tp1970
sL4217724L
(F6875.9081967213115
L4217739L
tp1971
sL4209533L
(F26.604637581605235
L4209587L
tp1972
sL4210496L
(F2.0
L4210496L
tp1973
sL4234116L
(F891.3975426711828
L4234135L
tp1974
sL4228246L
(F73.14285714285714
L4228253L
tp1975
sL4201351L
(F30.071779300165904
L4201360L
tp1976
sL4217739L
(F54.44319833852544
L4217766L
tp1977
sL4225934L
(F16.0
L4225944L
tp1978
sL4201360L
(F60.14355860033181
L4201373L
tp1979
sL4256920L
(F1927.5294117647059
L4256928L
tp1980
sL4266902L
(F2.0
L4266912L
tp1981
sL4234135L
(F1782.7950853423656
L4234153L
tp1982
sL4225944L
(F32.0
L4225954L
tp1983
sL4258714L
(F32.0
L4258769L
tp1984
sL4201373L
(F120.28711720066362
L4201384L
tp1985
sL4266912L
(F2.0
L4266934L
tp1986
sL4225954L
(F64.0
L4225960L
tp1987
sL4217766L
(F108.88639667705088
L4217836L
tp1988
sL4258289L
(F2.0
L4258296L
tp1989
sL4201384L
(F37.01142067712727
L4201392L
tp1990
sL4234153L
(F891.3975426711828
L4234166L
tp1991
sL4201392L
(F35.97371729365641
L4201448L
tp1992
sL4225969L
(F14.222222222222221
L4225979L
tp1993
sL4209587L
(F53.20927516321047
L4209607L
tp1994
sL4266934L
(F1.3333333333333333
L4266949L
tp1995
sL4225979L
(F28.444444444444443
L4225981L
tp1996
sL4255562L
(F256.0
L4255565L
tp1997
sL4225984L
(F2.0
L4225986L
tp1998
sL4225986L
(F1.5802469135802468
L4225988L
tp1999
sL4234182L
(F195.04761904761904
L4234192L
tp2000
sL4209607L
(F106.41855032642094
L4209631L
tp2001
sL4234192L
(F4.0
L4234228L
tp2002
sL4258296L
(F2.0
L4258339L
tp2003
sL4266964L
(F1.0
L4266973L
tp2004
sL4226005L
(F2.0
L4226016L
tp2005
sL4258776L
(F64.0
L4259014L
tp2006
sL4209631L
(F212.83710065284188
L4209642L
tp2007
sL4226016L
(F2.0
L4226044L
tp2008
sL4201448L
(F71.94743458731281
L4201452L
tp2009
sL4209642L
(F425.67420130568377
L4209655L
tp2010
sL4201452L
(F35.97371729365641
L4201471L
tp2011
sL4217841L
(F8.0
L4217905L
tp2012
sL4234228L
(F85.33333333333333
L4234237L
tp2013
sL4209655L
(F238.28046717751724
L4209666L
tp2014
sL4226044L
(F4.0
L4226050L
tp2015
sL4234237L
(F170.66666666666666
L4234260L
tp2016
sL4201471L
(F71.94743458731281
L4201482L
tp2017
sL4226050L
(F1.3333333333333333
L4226052L
tp2018
sL4201482L
(F71.94743458731281
L4201493L
tp2019
sL4226064L
(F1.0
L4226159L
tp2020
sL4234260L
(F2.0
L4234270L
tp2021
sL4201493L
(F71.94743458731281
L4201505L
tp2022
sL4234270L
(F42.666666666666664
L4234360L
tp2023
sL4220080L
(F1.322997416020672
L4220082L
tp2024
sL4209706L
(F953.121868710069
L4209719L
tp2025
sL4209719L
(F1906.243737420138
L4209763L
tp2026
sL4239008L
(F2.0
L4239019L
tp2027
sL4217920L
(F1.0
L4217958L
tp2028
sL4247392L
(F2.0
L4247400L
tp2029
sL4209763L
(F16.67483481439109
L4209768L
tp2030
sL4217958L
(F2.0
L4217963L
tp2031
sL4209768L
(F2.0
L4209776L
tp2032
sL4263560L
(F2.0
L4263635L
tp2033
sL4202184L
(F4.0
L4202204L
tp2034
sL4226159L
(F2.0
L4226169L
tp2035
sL4209776L
(F106.41855032642094
L4209812L
tp2036
sL4247400L
(F4.0
L4247408L
tp2037
sL4255104L
(F4.0
L4255128L
tp2038
sL4234360L
(F85.33333333333333
L4234365L
tp2039
sL4226169L
(F2.0
L4226177L
tp2040
sL4234365L
(F42.666666666666664
L4234414L
tp2041
sL4217984L
(F1.0
L4218029L
tp2042
sL4199616L
(F16.0
L4199626L
tp2043
sL4200490L
(F285.8713195201745
L4200497L
tp2044
sL4226185L
(F8.0
L4226189L
tp2045
sL4200983L
(F5.235654796380994
L4201035L
tp2046
sL4226189L
(F10.138613861386139
L4226191L
tp2047
sL4226191L
(F2.1740976645435244
L4226211L
tp2048
sL4201616L
(F71.94743458731281
L4201641L
tp2049
sL4260288L
(F11915.636363636364
L4260308L
tp2050
sL4208619L
(F1173.0730691816234
L4208629L
tp2051
sL4209824L
(F1.0
L4209866L
tp2052
sL4202352L
(F167.54095348419182
L4202364L
tp2053
sL4226211L
(F4.348195329087049
L4226224L
tp2054
sL4257288L
(F63.262503770739066
L4257316L
tp2055
sL4201641L
(F143.89486917462563
L4201647L
tp2056
sL4218029L
(F2.0
L4218059L
tp2057
sL4234414L
(F42.666666666666664
L4234466L
tp2058
sL4201647L
(F287.78973834925125
L4201656L
tp2059
sL4226224L
(F16.0
L4226236L
tp2060
sL4226464L
(F16.0
L4226475L
tp2061
sL4201656L
(F575.5794766985025
L4201667L
tp2062
sL4226236L
(F32.0
L4226242L
tp2063
sL4256970L
(F79.07812971342383
L4256977L
tp2064
sL4226242L
(F32.0
L4226257L
tp2065
sL4201667L
(F287.78973834925125
L4201706L
tp2066
sL4259014L
(F32.0
L4259136L
tp2067
sL4218059L
(F1.0
L4218125L
tp2068
sL4209872L
(F1.0
L4209893L
tp2069
sL4226257L
(F1.7297297297297298
L4226366L
tp2070
sL4258339L
(F4.0
L4258351L
tp2071
sL4234466L
(F42.666666666666664
L4234554L
tp2072
sL4209893L
(F2.0
L4209903L
tp2073
sL4261073L
(F1561806289.4545455
L4261101L
tp2074
sL4201706L
(F575.5794766985025
L4201728L
tp2075
sL4209903L
(F4.0
L4209911L
tp2076
sL4226514L
(F8.0
L4226529L
tp2077
sL4210558L
(F1.0
L4210610L
tp2078
sL4209920L
(F1.3333333333333333
L4209922L
tp2079
sL4239232L
(F8.0
L4239308L
tp2080
sL4218125L
(F2.0
L4218132L
tp2081
sL4209936L
(F1.0
L4209936L
tp2082
sL4218132L
(F2.0
L4218137L
tp2083
sL4218144L
(F1.0
L4218194L
tp2084
sL4258352L
(F16.0
L4258360L
tp2085
sL4201767L
(F4.562967489904509
L4201791L
tp2086
sL4246067L
(F8.0
L4246091L
tp2087
sL4234554L
(F167.13703925084678
L4234584L
tp2088
sL4209981L
(F4.0
L4209989L
tp2089
sL4226366L
(F3.4594594594594597
L4226374L
tp2090
sL4201791L
(F9.125934979809019
L4201804L
tp2091
sL4259136L
(F64.0
L4259153L
tp2092
sL4226374L
(F6.918918918918919
L4226382L
tp2093
sL4209992L
(F1.3333333333333333
L4209994L
tp2094
sL4234107L
(F445.6987713355914
L4234116L
tp2095
sL4201804L
(F17.16335536559395
L4201817L
tp2096
sL4226382L
(F13.837837837837839
L4226390L
tp2097
sL4210000L
(F1.0
L4210009L
tp2098
sL4218194L
(F2.0
L4218198L
tp2099
sL4218198L
(F1.0
L4218208L
tp2100
sL4259160L
(F128.0
L4259181L
tp2101
sL4210009L
(F2.0
L4210026L
tp2102
sL4218208L
(F2.0
L4218240L
tp2103
sL4218768L
(F8.0
L4218776L
tp2104
sL4201826L
(F68.6534214623758
L4201873L
tp2105
sL4210026L
(F1.0
L4210028L
tp2106
sL4259181L
(F64.0
L4259198L
tp2107
sL4226415L
(F55.351351351351354
L4226428L
tp2108
sL4210032L
(F1.0
L4210043L
tp2109
sL4260176L
(F5957.818181818182
L4260200L
tp2110
sL4263296L
(F3.1507692307692308
L4263316L
tp2111
sL4225925L
(F8.0
L4225934L
tp2112
sL4261114L
(F6247225157.818182
L4261128L
tp2113
sL4210043L
(F1.3333333333333333
L4210045L
tp2114
sL4234620L
(F334.27407850169357
L4234654L
tp2115
sL4259198L
(F128.0
L4259218L
tp2116
sL4218240L
(F2.0
L4218305L
tp2117
sL4226441L
(F2.7675675675675677
L4226449L
tp2118
sL4210058L
(F4.0
L4210070L
tp2119
sL4201873L
(F39.23052654992903
L4201881L
tp2120
sL4259224L
(F256.0
L4259256L
tp2121
sL4201881L
(F68.6534214623758
L4201889L
tp2122
sL4234654L
(F668.5481570033871
L4234660L
tp2123
sL4210080L
(F1.0
L4210104L
tp2124
sL4265200L
(F32.0
L4265218L
tp2125
sL4234660L
(F334.27407850169357
L4234697L
tp2126
sL4201896L
(F274.6136858495032
L4201903L
tp2127
sL4226475L
(F16.0
L4226488L
tp2128
sL4247453L
(F1.6
L4247461L
tp2129
sL4259256L
(F128.0
L4259282L
tp2130
sL4226496L
(F4.0
L4226504L
tp2131
sL4206496L
(F2302.31790679401
L4206509L
tp2132
sL4218307L
(F4.0
L4218322L
tp2133
sL4226504L
(F8.0
L4226510L
tp2134
sL4234697L
(F79.63865204167246
L4234718L
tp2135
sL4226510L
(F8.0
L4226514L
tp2136
sL4232440L
(F21.333333333333332
L4232445L
tp2137
sL4218322L
(F8.0
L4218324L
tp2138
sL4218324L
(F8.0
L4218377L
tp2139
sL4257017L
(F79.07812971342383
L4257059L
tp2140
sL4201947L
(F137.3068429247516
L4201949L
tp2141
sL4210140L
(F2.0
L4210160L
tp2142
sL4244730L
(F4.0
L4244749L
tp2143
sL4234718L
(F584.0022277917014
L4234751L
tp2144
sL4226529L
(F16.0
L4226534L
tp2145
sL4210160L
(F2.0
L4210196L
tp2146
sL4263848L
(F16.0
L4263927L
tp2147
sL4201978L
(F8.858505995145265
L4202000L
tp2148
sL4234751L
(F129.94714502586982
L4234790L
tp2149
sL4226560L
(F16.0
L4226576L
tp2150
sL4218377L
(F16.0
L4218379L
tp2151
sL4202000L
(F8.858505995145265
L4202009L
tp2152
sL4217432L
(F1527.9795992714025
L4217469L
tp2153
sL4210196L
(F4.0
L4210201L
tp2154
sL4202009L
(F17.71701199029053
L4202018L
tp2155
sL4226592L
(F6.918918918918919
L4226604L
tp2156
sL4202018L
(F35.43402398058106
L4202027L
tp2157
sL4234790L
(F1782.7950853423656
L4234854L
tp2158
sL4210216L
(F8.0
L4210232L
tp2159
sL4202027L
(F35.43402398058106
L4202035L
tp2160
sL4226604L
(F13.837837837837839
L4226617L
tp2161
sL4233821L
(F3120.7619047619046
L4233831L
tp2162
sL4202035L
(F17.71701199029053
L4202044L
tp2163
sL4210232L
(F8.0
L4210265L
tp2164
sL4226617L
(F13.837837837837839
L4226648L
tp2165
sL4202044L
(F35.43402398058106
L4202049L
tp2166
sL4259392L
(F512.0
L4259460L
tp2167
sL4202049L
(F35.43402398058106
L4202058L
tp2168
sL4202058L
(F70.86804796116212
L4202063L
tp2169
sL4227296L
(F1.0
L4227346L
tp2170
sL4202063L
(F70.86804796116212
L4202076L
tp2171
sL4210265L
(F16.0
L4210274L
tp2172
sL4202076L
(F8.337417407195545
L4202145L
tp2173
sL4225637L
(F1.032258064516129
L4225704L
tp2174
sL4226656L
(F13.837837837837839
L4226664L
tp2175
sL4210274L
(F6.4
L4210286L
tp2176
sL4234854L
(F3565.590170684731
L4234872L
tp2177
sL4226664L
(F27.675675675675677
L4226677L
tp2178
sL4210288L
(F1.0
L4210311L
tp2179
sL4226677L
(F27.675675675675677
L4226717L
tp2180
sL4234872L
(F2.0
L4234914L
tp2181
sL4218497L
(F4.0
L4218499L
tp2182
sL4218499L
(F4.0
L4218514L
tp2183
sL4259460L
(F256.0
L4259486L
tp2184
sL4210311L
(F2.0
L4210348L
tp2185
sL4261144L
(F24988900631.272728
L4261160L
tp2186
sL4218514L
(F8.0
L4218516L
tp2187
sL4218516L
(F8.0
L4218569L
tp2188
sL4259486L
(F512.0
L4259506L
tp2189
sL4226720L
(F55.351351351351354
L4226739L
tp2190
sL4201072L
(F83.77047674209591
L4201088L
tp2191
sL4234914L
(F48.76190476190476
L4234980L
tp2192
sL4265961L
(F2730.6666666666665
L4265977L
tp2193
sL4210348L
(F1.0
L4210358L
tp2194
sL4222662L
(F4096.0
L4222672L
tp2195
sL4259506L
(F512.0
L4259510L
tp2196
sL4202163L
(F4.0
L4202184L
tp2197
sL4259510L
(F1024.0
L4259528L
tp2198
sL4226744L
(F13.837837837837839
L4226763L
tp2199
sL4236575L
(F10.666666666666666
L4236612L
tp2200
sL11363836L
(F1.0
L11363840L
tp2201
sL4210368L
(F1.0
L4210378L
tp2202
sL4259528L
(F1024.0
L4259555L
tp2203
sL4218569L
(F16.0
L4218579L
tp2204
sL4210378L
(F2.0
L4210400L
tp2205
sL4231392L
(F1291.3497536945813
L4231485L
tp2206
sL4226768L
(F27.675675675675677
L4226784L
tp2207
sL4218579L
(F32.0
L4218581L
tp2208
sL4202204L
(F8.0
L4202217L
tp2209
sL4210400L
(F2.0
L4210460L
tp2210
sL4247504L
(F6.4
L4247510L
tp2211
sL4259555L
(F2048.0
L4259560L
tp2212
sL4234980L
(F2.0459400740075178
L4234985L
tp2213
sL4218598L
(F2.0
L4218665L
tp2214
sL4226791L
(F4.348195329087049
L4226796L
tp2215
sL4259560L
(F4096.0
L4259584L
tp2216
sL4202217L
(F16.0
L4202237L
tp2217
sL4226800L
(F1.0
L4226840L
tp2218
sL11363624L
(F1.0
L11363628L
tp2219
sL4202237L
(F4.0
L4202254L
tp2220
sL4206549L
(F167.54095348419182
L4206577L
tp2221
sL4259584L
(F4096.0
L4259615L
tp2222
sL4201088L
(F167.54095348419182
L4201099L
tp2223
sL4265259L
(F1673.7047086991222
L4265280L
tp2224
sL4247510L
(F6.4
L4247533L
tp2225
sL4254337L
(F512.0
L4254365L
tp2226
sL4264128L
(F512.0
L4264252L
tp2227
sL4202256L
(F83.77047674209591
L4202291L
tp2228
sL4226840L
(F2.0
L4226856L
tp2229
sL4210460L
(F4.0
L4210478L
tp2230
sL4227034L
(F8.0
L4227055L
tp2231
sL4259615L
(F744.7272727272727
L4259635L
tp2232
sL4226856L
(F1.1428571428571428
L4226864L
tp2233
sL4218665L
(F4.0
L4218677L
tp2234
sL4210478L
(F2.0
L4210490L
tp2235
sL4233032L
(F64.0
L4233047L
tp2236
sL4259635L
(F1489.4545454545455
L4259642L
tp2237
sL4218677L
(F1.3333333333333333
L4218679L
tp2238
sL4218679L
(F4.0
L4218688L
tp2239
sL4259642L
(F1489.4545454545455
L4259694L
tp2240
sL4226876L
(F4.0
L4226891L
tp2241
sL4218688L
(F4.0
L4218727L
tp2242
sL4233867L
(F3566.5850340136053
L4233872L
tp2243
sL4226891L
(F2.0
L4226926L
tp2244
sL4235093L
(F2.0
L4235098L
tp2245
sL4235098L
(F2.0
L4235103L
tp2246
sL4210523L
(F2.0
L4210558L
tp2247
sL4235104L
(F1.0
L4235125L
tp2248
sL4218727L
(F4.0
L4218760L
tp2249
sL11363644L
(F1.0
L11363648L
tp2250
sL4259696L
(F5957.818181818182
L4259751L
tp2251
sL4235125L
(F2.0
L4235128L
tp2252
sL4235128L
(F2.0
L4235462L
tp2253
sL4231125L
(F256.0
L4231153L
tp2254
sL4202364L
(F335.08190696838363
L4202405L
tp2255
sL4223760L
(F2.2857142857142856
L4223924L
tp2256
sL11363648L
(F1.0
L11363652L
tp2257
sL4247533L
(F12.8
L4247544L
tp2258
sL4226960L
(F4.0
L4226982L
tp2259
sL11363652L
(F1.0
L11363656L
tp2260
sL4218784L
(F8.0
L4218810L
tp2261
sL4202405L
(F111.69396898946121
L4202417L
tp2262
sL4226982L
(F8.0
L4226996L
tp2263
sL4259751L
(F1489.4545454545455
L4259803L
tp2264
sL4202417L
(F223.38793797892242
L4202475L
tp2265
sL4226996L
(F2.0
L4227034L
tp2266
sL4218810L
(F16.0
L4218824L
tp2267
sL4251584L
(F1.0
L4253046L
tp2268
sL4206577L
(F111.69396898946121
L4206593L
tp2269
sL4218824L
(F8.0
L4218837L
tp2270
sL4210640L
(F2.0
L4210650L
tp2271
sL4247544L
(F6.4
L4247563L
tp2272
sL4218837L
(F8.0
L4218846L
tp2273
sL4210650L
(F4.0
L4210664L
tp2274
sL4259803L
(F2978.909090909091
L4259844L
tp2275
sL4218846L
(F16.0
L4218860L
tp2276
sL4232528L
(F85.33333333333333
L4232533L
tp2277
sL4265772L
(F512.0
L4265781L
tp2278
sL4210664L
(F8.0
L4210669L
tp2279
sL4202475L
(F74.46264599297415
L4202487L
tp2280
sL4218860L
(F8.0
L4218873L
tp2281
sL4210669L
(F16.0
L4210678L
tp2282
sL4227056L
(F1.0
L4227118L
tp2283
sL4266664L
(F8.0
L4266721L
tp2284
sL4248915L
(F12.946281763394063
L4248970L
tp2285
sL4257589L
(F2.0
L4257603L
tp2286
sL4202487L
(F148.9252919859483
L4202560L
tp2287
sL4218873L
(F8.0
L4218882L
tp2288
s.